 dsogi_pll_3ph_sfun

 Timestamp is 665f55ab (Tue Jun  4 19:58:03 2024)

 Preferred load address is 0000000180000000

 Start         Length     Name                   Class
 0001:00000000 000300a0H .text$mn                CODE
 0001:000300a0 00000036H .text$mn$00             CODE
 0001:000300d6 00000092H .text$x                 CODE
 0002:00000000 00000490H .idata$5                DATA
 0002:00000490 00000038H .00cfg                  DATA
 0002:000004c8 00000008H .CRT$XCA                DATA
 0002:000004d0 00000008H .CRT$XCZ                DATA
 0002:000004d8 00000008H .CRT$XIA                DATA
 0002:000004e0 00000008H .CRT$XIZ                DATA
 0002:000004e8 00000008H .CRT$XPA                DATA
 0002:000004f0 00000008H .CRT$XPZ                DATA
 0002:000004f8 00000008H .CRT$XTA                DATA
 0002:00000500 00000010H .CRT$XTZ                DATA
 0002:00000508 00000000H .gehcont$y              DATA
 0002:00000508 00000000H .gfids$y                DATA
 0002:00000510 00000470H .rdata                  DATA
 0002:00000980 00000080H .rdata$CastGuardVftablesA DATA
 0002:00000a00 00000080H .rdata$CastGuardVftablesC DATA
 0002:00000a80 0000029cH .rdata$voltmd           DATA
 0002:00000d1c 0000027cH .rdata$zzzdbg           DATA
 0002:00000f98 00000008H .rtc$IAA                DATA
 0002:00000fa0 00000008H .rtc$IZZ                DATA
 0002:00000fa8 00000008H .rtc$TAA                DATA
 0002:00000fb0 00000008H .rtc$TZZ                DATA
 0002:00000fb8 00001a38H .xdata                  DATA
 0002:000029f0 0000007cH .edata                  DATA
 0002:00002a6c 00000118H .idata$2                DATA
 0002:00002b84 00000014H .idata$3                DATA
 0002:00002b98 00000490H .idata$4                DATA
 0002:00003028 00000c8aH .idata$6                DATA
 0003:00000000 0000ac50H .data                   DATA
 0003:0000ac50 00005600H .bss                    DATA
 0004:00000000 000022bcH .pdata                  DATA

  Address         Publics by Value              Rva+Base               Lib:Object

 0000:00000000       __AbsoluteZero             0000000000000000     <absolute>
 0000:00000000       ___safe_se_handler_count   0000000000000000     <absolute>
 0000:00000000       ___safe_se_handler_table   0000000000000000     <absolute>
 0000:00000000       __arm64x_extra_rfe_table   0000000000000000     <absolute>
 0000:00000000       __arm64x_extra_rfe_table_size 0000000000000000     <absolute>
 0000:00000000       __arm64x_native_entrypoint 0000000000000000     <absolute>
 0000:00000000       __arm64x_redirection_metadata 0000000000000000     <absolute>
 0000:00000000       __arm64x_redirection_metadata_count 0000000000000000     <absolute>
 0000:00000000       __dynamic_value_reloc_table 0000000000000000     <absolute>
 0000:00000000       __enclave_config           0000000000000000     <absolute>
 0000:00000000       __guard_check_icall_a64n_fptr 0000000000000000     <absolute>
 0000:00000000       __guard_eh_cont_count      0000000000000000     <absolute>
 0000:00000000       __guard_eh_cont_table      0000000000000000     <absolute>
 0000:00000000       __guard_fids_count         0000000000000000     <absolute>
 0000:00000000       __guard_fids_table         0000000000000000     <absolute>
 0000:00000000       __guard_iat_count          0000000000000000     <absolute>
 0000:00000000       __guard_iat_table          0000000000000000     <absolute>
 0000:00000000       __guard_longjmp_count      0000000000000000     <absolute>
 0000:00000000       __guard_longjmp_table      0000000000000000     <absolute>
 0000:00000000       __hybrid_auxiliary_delayload_iat 0000000000000000     <absolute>
 0000:00000000       __hybrid_auxiliary_delayload_iat_copy 0000000000000000     <absolute>
 0000:00000000       __hybrid_auxiliary_iat     0000000000000000     <absolute>
 0000:00000000       __hybrid_auxiliary_iat_copy 0000000000000000     <absolute>
 0000:00000000       __hybrid_code_map          0000000000000000     <absolute>
 0000:00000000       __hybrid_code_map_count    0000000000000000     <absolute>
 0000:00000000       __x64_code_ranges_to_entry_points 0000000000000000     <absolute>
 0000:00000000       __x64_code_ranges_to_entry_points_count 0000000000000000     <absolute>
 0000:00000100       __guard_flags              0000000000000100     <absolute>
 0000:00000000       __ImageBase                0000000180000000     <linker-defined>
 0001:00000000       dsogi_pll_3ph_initializer  0000000180001000 f   dsogi_pll_3ph_sfun.obj
 0001:00000010       dsogi_pll_3ph_terminator   0000000180001010 f   dsogi_pll_3ph_sfun.obj
 0001:00000020       load_dsogi_pll_3ph_optimization_info 0000000180001020 f   dsogi_pll_3ph_sfun.obj
 0001:000000d0       unload_dsogi_pll_3ph_optimization_info 00000001800010d0 f   dsogi_pll_3ph_sfun.obj
 0001:00000100       sf_dsogi_pll_3ph_method_dispatcher 0000000180001100 f   dsogi_pll_3ph_sfun.obj
 0001:000002f0       sf_dsogi_pll_3ph_process_check_sum_call 00000001800012f0 f   dsogi_pll_3ph_sfun.obj
 0001:00000930       sf_dsogi_pll_3ph_get_eml_resolved_functions_info 0000000180001930 f   dsogi_pll_3ph_sfun.obj
 0001:00000f90       sf_dsogi_pll_3ph_third_party_uses_info 0000000180001f90 f   dsogi_pll_3ph_sfun.obj
 0001:00001450       sf_dsogi_pll_3ph_jit_fallback_info 0000000180002450 f   dsogi_pll_3ph_sfun.obj
 0001:00001910       sf_dsogi_pll_3ph_get_post_codegen_info 0000000180002910 f   dsogi_pll_3ph_sfun.obj
 0001:00001ee0       sf_dsogi_pll_3ph_updateBuildInfo_args_info 0000000180002ee0 f   dsogi_pll_3ph_sfun.obj
 0001:000023a0       dsogi_pll_3ph_register_exported_symbols 00000001800033a0 f   dsogi_pll_3ph_sfun.obj
 0001:000023b0       sf_c1_dsogi_pll_3ph_get_eml_resolved_functions_info 00000001800033b0 f   c1_dsogi_pll_3ph.obj
 0001:00002430       sf_c1_dsogi_pll_3ph_get_check_sum 0000000180003430 f   c1_dsogi_pll_3ph.obj
 0001:00002500       c1_dsogi_pll_3ph_method_dispatcher 0000000180003500 f   c1_dsogi_pll_3ph.obj
 0001:000060c0       sf_c1_dsogi_pll_3ph_third_party_uses_info 00000001800070c0 f   c1_dsogi_pll_3ph.obj
 0001:000060f0       sf_c1_dsogi_pll_3ph_jit_fallback_info 00000001800070f0 f   c1_dsogi_pll_3ph.obj
 0001:00006280       sf_c1_dsogi_pll_3ph_updateBuildInfo_args_info 0000000180007280 f   c1_dsogi_pll_3ph.obj
 0001:00006640       sf_c1_dsogi_pll_3ph_get_post_codegen_info 0000000180007640 f   c1_dsogi_pll_3ph.obj
 0001:00006b40       sf_c2_dsogi_pll_3ph_get_eml_resolved_functions_info 0000000180007b40 f   c2_dsogi_pll_3ph.obj
 0001:00006bc0       sf_c2_dsogi_pll_3ph_get_check_sum 0000000180007bc0 f   c2_dsogi_pll_3ph.obj
 0001:00006c90       c2_dsogi_pll_3ph_method_dispatcher 0000000180007c90 f   c2_dsogi_pll_3ph.obj
 0001:0000a850       sf_c2_dsogi_pll_3ph_third_party_uses_info 000000018000b850 f   c2_dsogi_pll_3ph.obj
 0001:0000a880       sf_c2_dsogi_pll_3ph_jit_fallback_info 000000018000b880 f   c2_dsogi_pll_3ph.obj
 0001:0000aa10       sf_c2_dsogi_pll_3ph_updateBuildInfo_args_info 000000018000ba10 f   c2_dsogi_pll_3ph.obj
 0001:0000add0       sf_c2_dsogi_pll_3ph_get_post_codegen_info 000000018000bdd0 f   c2_dsogi_pll_3ph.obj
 0001:0000b2d0       sf_c10_dsogi_pll_3ph_get_eml_resolved_functions_info 000000018000c2d0 f   c10_dsogi_pll_3ph.obj
 0001:0000b350       sf_c10_dsogi_pll_3ph_get_check_sum 000000018000c350 f   c10_dsogi_pll_3ph.obj
 0001:0000b420       c10_dsogi_pll_3ph_method_dispatcher 000000018000c420 f   c10_dsogi_pll_3ph.obj
 0001:0000d0b0       sf_c10_dsogi_pll_3ph_third_party_uses_info 000000018000e0b0 f   c10_dsogi_pll_3ph.obj
 0001:0000d0e0       sf_c10_dsogi_pll_3ph_jit_fallback_info 000000018000e0e0 f   c10_dsogi_pll_3ph.obj
 0001:0000d270       sf_c10_dsogi_pll_3ph_updateBuildInfo_args_info 000000018000e270 f   c10_dsogi_pll_3ph.obj
 0001:0000d630       sf_c10_dsogi_pll_3ph_get_post_codegen_info 000000018000e630 f   c10_dsogi_pll_3ph.obj
 0001:0000db30       sf_c17_dsogi_pll_3ph_get_eml_resolved_functions_info 000000018000eb30 f   c17_dsogi_pll_3ph.obj
 0001:0000dbb0       sf_c17_dsogi_pll_3ph_get_check_sum 000000018000ebb0 f   c17_dsogi_pll_3ph.obj
 0001:0000dc80       c17_dsogi_pll_3ph_method_dispatcher 000000018000ec80 f   c17_dsogi_pll_3ph.obj
 0001:0000f0a0       sf_c17_dsogi_pll_3ph_third_party_uses_info 00000001800100a0 f   c17_dsogi_pll_3ph.obj
 0001:0000f0d0       sf_c17_dsogi_pll_3ph_jit_fallback_info 00000001800100d0 f   c17_dsogi_pll_3ph.obj
 0001:0000f260       sf_c17_dsogi_pll_3ph_updateBuildInfo_args_info 0000000180010260 f   c17_dsogi_pll_3ph.obj
 0001:0000f620       sf_c17_dsogi_pll_3ph_get_post_codegen_info 0000000180010620 f   c17_dsogi_pll_3ph.obj
 0001:0000fb20       sf_c18_dsogi_pll_3ph_get_eml_resolved_functions_info 0000000180010b20 f   c18_dsogi_pll_3ph.obj
 0001:0000fba0       sf_c18_dsogi_pll_3ph_get_check_sum 0000000180010ba0 f   c18_dsogi_pll_3ph.obj
 0001:0000fc70       c18_dsogi_pll_3ph_method_dispatcher 0000000180010c70 f   c18_dsogi_pll_3ph.obj
 0001:00011090       sf_c18_dsogi_pll_3ph_third_party_uses_info 0000000180012090 f   c18_dsogi_pll_3ph.obj
 0001:000110c0       sf_c18_dsogi_pll_3ph_jit_fallback_info 00000001800120c0 f   c18_dsogi_pll_3ph.obj
 0001:00011250       sf_c18_dsogi_pll_3ph_updateBuildInfo_args_info 0000000180012250 f   c18_dsogi_pll_3ph.obj
 0001:00011610       sf_c18_dsogi_pll_3ph_get_post_codegen_info 0000000180012610 f   c18_dsogi_pll_3ph.obj
 0001:00011b10       sf_c19_dsogi_pll_3ph_get_eml_resolved_functions_info 0000000180012b10 f   c19_dsogi_pll_3ph.obj
 0001:00011b90       sf_c19_dsogi_pll_3ph_get_check_sum 0000000180012b90 f   c19_dsogi_pll_3ph.obj
 0001:00011c60       c19_dsogi_pll_3ph_method_dispatcher 0000000180012c60 f   c19_dsogi_pll_3ph.obj
 0001:00013080       sf_c19_dsogi_pll_3ph_third_party_uses_info 0000000180014080 f   c19_dsogi_pll_3ph.obj
 0001:000130b0       sf_c19_dsogi_pll_3ph_jit_fallback_info 00000001800140b0 f   c19_dsogi_pll_3ph.obj
 0001:00013240       sf_c19_dsogi_pll_3ph_updateBuildInfo_args_info 0000000180014240 f   c19_dsogi_pll_3ph.obj
 0001:00013600       sf_c19_dsogi_pll_3ph_get_post_codegen_info 0000000180014600 f   c19_dsogi_pll_3ph.obj
 0001:00013b00       sf_c20_dsogi_pll_3ph_get_eml_resolved_functions_info 0000000180014b00 f   c20_dsogi_pll_3ph.obj
 0001:00013b80       sf_c20_dsogi_pll_3ph_get_check_sum 0000000180014b80 f   c20_dsogi_pll_3ph.obj
 0001:00013c50       c20_dsogi_pll_3ph_method_dispatcher 0000000180014c50 f   c20_dsogi_pll_3ph.obj
 0001:00015070       sf_c20_dsogi_pll_3ph_third_party_uses_info 0000000180016070 f   c20_dsogi_pll_3ph.obj
 0001:000150a0       sf_c20_dsogi_pll_3ph_jit_fallback_info 00000001800160a0 f   c20_dsogi_pll_3ph.obj
 0001:00015230       sf_c20_dsogi_pll_3ph_updateBuildInfo_args_info 0000000180016230 f   c20_dsogi_pll_3ph.obj
 0001:000155f0       sf_c20_dsogi_pll_3ph_get_post_codegen_info 00000001800165f0 f   c20_dsogi_pll_3ph.obj
 0001:00015af0       sf_c21_dsogi_pll_3ph_get_eml_resolved_functions_info 0000000180016af0 f   c21_dsogi_pll_3ph.obj
 0001:00015b70       sf_c21_dsogi_pll_3ph_get_check_sum 0000000180016b70 f   c21_dsogi_pll_3ph.obj
 0001:00015c40       c21_dsogi_pll_3ph_method_dispatcher 0000000180016c40 f   c21_dsogi_pll_3ph.obj
 0001:00016fe0       sf_c21_dsogi_pll_3ph_third_party_uses_info 0000000180017fe0 f   c21_dsogi_pll_3ph.obj
 0001:00017010       sf_c21_dsogi_pll_3ph_jit_fallback_info 0000000180018010 f   c21_dsogi_pll_3ph.obj
 0001:000171a0       sf_c21_dsogi_pll_3ph_updateBuildInfo_args_info 00000001800181a0 f   c21_dsogi_pll_3ph.obj
 0001:00017560       sf_c21_dsogi_pll_3ph_get_post_codegen_info 0000000180018560 f   c21_dsogi_pll_3ph.obj
 0001:00017a60       sf_c22_dsogi_pll_3ph_get_eml_resolved_functions_info 0000000180018a60 f   c22_dsogi_pll_3ph.obj
 0001:00017ae0       sf_c22_dsogi_pll_3ph_get_check_sum 0000000180018ae0 f   c22_dsogi_pll_3ph.obj
 0001:00017bb0       c22_dsogi_pll_3ph_method_dispatcher 0000000180018bb0 f   c22_dsogi_pll_3ph.obj
 0001:00018f50       sf_c22_dsogi_pll_3ph_third_party_uses_info 0000000180019f50 f   c22_dsogi_pll_3ph.obj
 0001:00018f80       sf_c22_dsogi_pll_3ph_jit_fallback_info 0000000180019f80 f   c22_dsogi_pll_3ph.obj
 0001:00019110       sf_c22_dsogi_pll_3ph_updateBuildInfo_args_info 000000018001a110 f   c22_dsogi_pll_3ph.obj
 0001:000194d0       sf_c22_dsogi_pll_3ph_get_post_codegen_info 000000018001a4d0 f   c22_dsogi_pll_3ph.obj
 0001:000199d0       sf_c23_dsogi_pll_3ph_get_eml_resolved_functions_info 000000018001a9d0 f   c23_dsogi_pll_3ph.obj
 0001:00019a50       sf_c23_dsogi_pll_3ph_get_check_sum 000000018001aa50 f   c23_dsogi_pll_3ph.obj
 0001:00019b20       c23_dsogi_pll_3ph_method_dispatcher 000000018001ab20 f   c23_dsogi_pll_3ph.obj
 0001:0001c270       sf_c23_dsogi_pll_3ph_third_party_uses_info 000000018001d270 f   c23_dsogi_pll_3ph.obj
 0001:0001c2a0       sf_c23_dsogi_pll_3ph_jit_fallback_info 000000018001d2a0 f   c23_dsogi_pll_3ph.obj
 0001:0001c430       sf_c23_dsogi_pll_3ph_updateBuildInfo_args_info 000000018001d430 f   c23_dsogi_pll_3ph.obj
 0001:0001c7f0       sf_c23_dsogi_pll_3ph_get_post_codegen_info 000000018001d7f0 f   c23_dsogi_pll_3ph.obj
 0001:0001cd00       sf_c24_dsogi_pll_3ph_get_eml_resolved_functions_info 000000018001dd00 f   c24_dsogi_pll_3ph.obj
 0001:0001cd80       sf_c24_dsogi_pll_3ph_get_check_sum 000000018001dd80 f   c24_dsogi_pll_3ph.obj
 0001:0001ce50       c24_dsogi_pll_3ph_method_dispatcher 000000018001de50 f   c24_dsogi_pll_3ph.obj
 0001:0001e880       sf_c24_dsogi_pll_3ph_third_party_uses_info 000000018001f880 f   c24_dsogi_pll_3ph.obj
 0001:0001e8b0       sf_c24_dsogi_pll_3ph_jit_fallback_info 000000018001f8b0 f   c24_dsogi_pll_3ph.obj
 0001:0001ea40       sf_c24_dsogi_pll_3ph_updateBuildInfo_args_info 000000018001fa40 f   c24_dsogi_pll_3ph.obj
 0001:0001ee00       sf_c24_dsogi_pll_3ph_get_post_codegen_info 000000018001fe00 f   c24_dsogi_pll_3ph.obj
 0001:0001f300       sf_c25_dsogi_pll_3ph_get_eml_resolved_functions_info 0000000180020300 f   c25_dsogi_pll_3ph.obj
 0001:0001f380       sf_c25_dsogi_pll_3ph_get_check_sum 0000000180020380 f   c25_dsogi_pll_3ph.obj
 0001:0001f450       c25_dsogi_pll_3ph_method_dispatcher 0000000180020450 f   c25_dsogi_pll_3ph.obj
 0001:00021140       sf_c25_dsogi_pll_3ph_third_party_uses_info 0000000180022140 f   c25_dsogi_pll_3ph.obj
 0001:00021170       sf_c25_dsogi_pll_3ph_jit_fallback_info 0000000180022170 f   c25_dsogi_pll_3ph.obj
 0001:00021300       sf_c25_dsogi_pll_3ph_updateBuildInfo_args_info 0000000180022300 f   c25_dsogi_pll_3ph.obj
 0001:000216c0       sf_c25_dsogi_pll_3ph_get_post_codegen_info 00000001800226c0 f   c25_dsogi_pll_3ph.obj
 0001:00021bc0       sf_c26_dsogi_pll_3ph_get_eml_resolved_functions_info 0000000180022bc0 f   c26_dsogi_pll_3ph.obj
 0001:00021c40       sf_c26_dsogi_pll_3ph_get_check_sum 0000000180022c40 f   c26_dsogi_pll_3ph.obj
 0001:00021d10       c26_dsogi_pll_3ph_method_dispatcher 0000000180022d10 f   c26_dsogi_pll_3ph.obj
 0001:000230b0       sf_c26_dsogi_pll_3ph_third_party_uses_info 00000001800240b0 f   c26_dsogi_pll_3ph.obj
 0001:000230e0       sf_c26_dsogi_pll_3ph_jit_fallback_info 00000001800240e0 f   c26_dsogi_pll_3ph.obj
 0001:00023270       sf_c26_dsogi_pll_3ph_updateBuildInfo_args_info 0000000180024270 f   c26_dsogi_pll_3ph.obj
 0001:00023630       sf_c26_dsogi_pll_3ph_get_post_codegen_info 0000000180024630 f   c26_dsogi_pll_3ph.obj
 0001:00023b30       mexFunction                0000000180024b30 f   dsogi_pll_3ph_sfun_registry.obj
 0001:00026400       _ssSetInputPortDirectFeedThroughFcn 0000000180027400 f   dsogi_pll_3ph_sfun_registry.obj
 0001:00026570       _ssSetRWorkValueFcn        0000000180027570 f   dsogi_pll_3ph_sfun_registry.obj
 0001:000265f0       _ssGetRWorkValueFcn        00000001800275f0 f   dsogi_pll_3ph_sfun_registry.obj
 0001:00026660       _ssSetIWorkValueFcn        0000000180027660 f   dsogi_pll_3ph_sfun_registry.obj
 0001:000266e0       _ssGetIWorkValueFcn        00000001800276e0 f   dsogi_pll_3ph_sfun_registry.obj
 0001:00026750       _ssSetPWorkValueFcn        0000000180027750 f   dsogi_pll_3ph_sfun_registry.obj
 0001:000267d0       _ssGetPWorkValueFcn        00000001800277d0 f   dsogi_pll_3ph_sfun_registry.obj
 0001:00026840       _ssGetInputPortSignalFcn   0000000180027840 f   dsogi_pll_3ph_sfun_registry.obj
 0001:00026bd0       _ssGetInputPortBufferDstPortFcn 0000000180027bd0 f   dsogi_pll_3ph_sfun_registry.obj
 0001:00026c50       _ssGetInputPortSignalPtrsFcn 0000000180027c50 f   dsogi_pll_3ph_sfun_registry.obj
 0001:00026fe0       ssGetParameterTuningCompliance 0000000180027fe0 f   dsogi_pll_3ph_sfun_registry.obj
 0001:00027050       _ssReadInputStringFcn      0000000180028050 f   dsogi_pll_3ph_sfun_registry.obj
 0001:000270c0       ssGetDTypeIdFromMxArray    00000001800280c0 f   dsogi_pll_3ph_sfun_registry.obj
 0001:000271e0       ssWriteRTWMx2dMatParam     00000001800281e0 f   dsogi_pll_3ph_sfun_registry.obj
 0001:00027270       ssWriteRTWMxVectParam      0000000180028270 f   dsogi_pll_3ph_sfun_registry.obj
 0001:000272f0       ssWriteRTWParameters       00000001800282f0 f   dsogi_pll_3ph_sfun_registry.obj
 0001:000278b0       ssWriteRTWParamSettings    00000001800288b0 f   dsogi_pll_3ph_sfun_registry.obj
 0001:00027fa0       ssWriteRTWStr              0000000180028fa0 f   dsogi_pll_3ph_sfun_registry.obj
 0001:00028000       ssWriteRTWWorkVect         0000000180029000 f   dsogi_pll_3ph_sfun_registry.obj
 0001:00028560       ssWarning                  0000000180029560 f   dsogi_pll_3ph_sfun_registry.obj
 0001:00028650       ssGetRootSS                0000000180029650 f   dsogi_pll_3ph_sfun_registry.obj
 0001:00028710       ssGetParentSS              0000000180029710 f   dsogi_pll_3ph_sfun_registry.obj
 0001:000287d0       ssWriteRTWNameValuePair    00000001800297d0 f   dsogi_pll_3ph_sfun_registry.obj
 0001:00028cd0       _ssSetInputPortMatrixDimensions 0000000180029cd0 f   dsogi_pll_3ph_sfun_registry.obj
 0001:00028e20       _ssSetOutputPortMatrixDimensions 0000000180029e20 f   dsogi_pll_3ph_sfun_registry.obj
 0001:00028f70       _ssSetInputPortVectorDimension 0000000180029f70 f   dsogi_pll_3ph_sfun_registry.obj
 0001:00029020       _ssSetOutputPortVectorDimension 000000018002a020 f   dsogi_pll_3ph_sfun_registry.obj
 0001:000290d0       ssIsRunTimeParamTunable    000000018002a0d0 f   dsogi_pll_3ph_sfun_registry.obj
 0001:00029140       ssGetSFuncBlockHandle      000000018002a140 f   dsogi_pll_3ph_sfun_registry.obj
 0001:000291b0       _ssGetCallSystemNumFcnCallDestinations 000000018002a1b0 f   dsogi_pll_3ph_sfun_registry.obj
 0001:00029220       _ssGetCurrentInputPortWidth 000000018002a220 f   dsogi_pll_3ph_sfun_registry.obj
 0001:00029360       _ssGetCurrentOutputPortWidth 000000018002a360 f   dsogi_pll_3ph_sfun_registry.obj
 0001:000294a0       ssGetIsZeroCrossControlDisabled 000000018002a4a0 f   dsogi_pll_3ph_sfun_registry.obj
 0001:00029510       ssSetIsInputPortUsedForContZcSignal 000000018002a510 f   dsogi_pll_3ph_sfun_registry.obj
 0001:00029580       ssSetZcSignalIsZcElementDisc 000000018002a580 f   dsogi_pll_3ph_sfun_registry.obj
 0001:00029630       ssSetZcSignalName          000000018002a630 f   dsogi_pll_3ph_sfun_registry.obj
 0001:000296a0       ssSetZcSignalWidth         000000018002a6a0 f   dsogi_pll_3ph_sfun_registry.obj
 0001:00029710       ssSetZcSignalZcEventType   000000018002a710 f   dsogi_pll_3ph_sfun_registry.obj
 0001:00029780       ssSetZcSignalType          000000018002a780 f   dsogi_pll_3ph_sfun_registry.obj
 0001:000297f0       ssSetZcSignalZcTol         000000018002a7f0 f   dsogi_pll_3ph_sfun_registry.obj
 0001:00029860       ssSetZcSignalNeedsEventNotification 000000018002a860 f   dsogi_pll_3ph_sfun_registry.obj
 0001:000298d0       ssCreateAndAddZcSignalInfo 000000018002a8d0 f   dsogi_pll_3ph_sfun_registry.obj
 0001:00029940       ssCloneAndAddZcSignalInfo  000000018002a940 f   dsogi_pll_3ph_sfun_registry.obj
 0001:000299b0       ssGetNumZcSignals          000000018002a9b0 f   dsogi_pll_3ph_sfun_registry.obj
 0001:00029a20       ssGetZcSignalVector        000000018002aa20 f   dsogi_pll_3ph_sfun_registry.obj
 0001:00029a90       ssGetZcSignalName          000000018002aa90 f   dsogi_pll_3ph_sfun_registry.obj
 0001:00029b00       ssGetZcSignalWidth         000000018002ab00 f   dsogi_pll_3ph_sfun_registry.obj
 0001:00029b70       ssGetZcSignalZcEventType   000000018002ab70 f   dsogi_pll_3ph_sfun_registry.obj
 0001:00029be0       ssGetZcSignalZcEvents      000000018002abe0 f   dsogi_pll_3ph_sfun_registry.obj
 0001:00029c50       ssGetZcSignalType          000000018002ac50 f   dsogi_pll_3ph_sfun_registry.obj
 0001:00029cc0       ssGetZcSignalZcTol         000000018002acc0 f   dsogi_pll_3ph_sfun_registry.obj
 0001:00029d40       ssGetZcSignalNeedsEventNotification 000000018002ad40 f   dsogi_pll_3ph_sfun_registry.obj
 0001:00029db0       ssGetZcSignalIsZcElementDisc 000000018002adb0 f   dsogi_pll_3ph_sfun_registry.obj
 0001:00029e50       ssGetIsInputPortElementContinuous 000000018002ae50 f   dsogi_pll_3ph_sfun_registry.obj
 0001:00029ef0       _ssGetAbsTol               000000018002aef0 f   dsogi_pll_3ph_sfun_registry.obj
 0001:00029f60       _ssSetStateAbsTol          000000018002af60 f   dsogi_pll_3ph_sfun_registry.obj
 0001:0002a040       _ssSetInputPortReusableFcn 000000018002b040 f   dsogi_pll_3ph_sfun_registry.obj
 0001:0002a140       _ssSetOutputPortReusableFcn 000000018002b140 f   dsogi_pll_3ph_sfun_registry.obj
 0001:0002a240       _ssSetSymbolicDimsSupport  000000018002b240 f   dsogi_pll_3ph_sfun_registry.obj
 0001:0002a2b0       _ssRegisterSymbolicDimsExpr 000000018002b2b0 f   dsogi_pll_3ph_sfun_registry.obj
 0001:0002a330       _ssRegisterSymbolicDimsMATLABExpr 000000018002b330 f   dsogi_pll_3ph_sfun_registry.obj
 0001:0002a3c0       _ssRegisterSymbolicDims    000000018002b3c0 f   dsogi_pll_3ph_sfun_registry.obj
 0001:0002a460       _ssRegisterSymbolicDimsString 000000018002b460 f   dsogi_pll_3ph_sfun_registry.obj
 0001:0002a4e0       _ssRegisterSymbolicDimsIntValue 000000018002b4e0 f   dsogi_pll_3ph_sfun_registry.obj
 0001:0002a550       _ssRegisterSymbolicEqualRelation 000000018002b550 f   dsogi_pll_3ph_sfun_registry.obj
 0001:0002a5c0       _ssRegisterSymbolicEqualValue 000000018002b5c0 f   dsogi_pll_3ph_sfun_registry.obj
 0001:0002a630       _ssAmendLeadingSymbolicDims 000000018002b630 f   dsogi_pll_3ph_sfun_registry.obj
 0001:0002a6b0       _ssAmendTrailingSymbolicDims 000000018002b6b0 f   dsogi_pll_3ph_sfun_registry.obj
 0001:0002a730       _ssRegisterSymbolicDimsPlus 000000018002b730 f   dsogi_pll_3ph_sfun_registry.obj
 0001:0002a7b0       _ssRegisterSymbolicDimsMinus 000000018002b7b0 f   dsogi_pll_3ph_sfun_registry.obj
 0001:0002a830       _ssRegisterSymbolicDimsMultiply 000000018002b830 f   dsogi_pll_3ph_sfun_registry.obj
 0001:0002a8b0       _ssRegisterSymbolicDimsDivide 000000018002b8b0 f   dsogi_pll_3ph_sfun_registry.obj
 0001:0002a930       _ssGetNumSymbolicDims      000000018002b930 f   dsogi_pll_3ph_sfun_registry.obj
 0001:0002a9a0       _ssGetSymbolicDim          000000018002b9a0 f   dsogi_pll_3ph_sfun_registry.obj
 0001:0002aa20       _ssSetInputPortSymbolicDimsId 000000018002ba20 f   dsogi_pll_3ph_sfun_registry.obj
 0001:0002aa90       _ssGetCompInputPortSymbolicDimsId 000000018002ba90 f   dsogi_pll_3ph_sfun_registry.obj
 0001:0002ab00       _ssSetCompInputPortSymbolicDimsId 000000018002bb00 f   dsogi_pll_3ph_sfun_registry.obj
 0001:0002ab70       _ssSetOutputPortSymbolicDimsId 000000018002bb70 f   dsogi_pll_3ph_sfun_registry.obj
 0001:0002abe0       _ssGetCompOutputPortSymbolicDimsId 000000018002bbe0 f   dsogi_pll_3ph_sfun_registry.obj
 0001:0002ac50       _ssSetCompOutputPortSymbolicDimsId 000000018002bc50 f   dsogi_pll_3ph_sfun_registry.obj
 0001:0002acc0       _ssGetDWorkSymbolicDimsId  000000018002bcc0 f   dsogi_pll_3ph_sfun_registry.obj
 0001:0002ad30       _ssSetDWorkSymbolicDimsId  000000018002bd30 f   dsogi_pll_3ph_sfun_registry.obj
 0001:0002ada0       _ssGetCompDWorkSymbolicDimsId 000000018002bda0 f   dsogi_pll_3ph_sfun_registry.obj
 0001:0002ae10       _ssSetCompDWorkSymbolicDimsId 000000018002be10 f   dsogi_pll_3ph_sfun_registry.obj
 0001:0002ae80       _ssCreateSLCGStringBuffer  000000018002be80 f   dsogi_pll_3ph_sfun_registry.obj
 0001:0002aef0       _ssAddToSLCGStringBuffer   000000018002bef0 f   dsogi_pll_3ph_sfun_registry.obj
 0001:0002af60       _ssGetPointerContainedData 000000018002bf60 f   dsogi_pll_3ph_sfun_registry.obj
 0001:0002aff0       _ssGetPointerContainedDataWidth 000000018002bff0 f   dsogi_pll_3ph_sfun_registry.obj
 0001:0002b080       _ssRegisterDynamicArrayDataTypeFcn 000000018002c080 f   dsogi_pll_3ph_sfun_registry.obj
 0001:0002b120       _ssGetDynamicArrayContainedDataCurrentWidthFcn 000000018002c120 f   dsogi_pll_3ph_sfun_registry.obj
 0001:0002b1f0       _ssGetDynamicArrayContainedDataFcn 000000018002c1f0 f   dsogi_pll_3ph_sfun_registry.obj
 0001:0002b2c0       _ssGetInputPortDynamicArrayDataFcn 000000018002c2c0 f   dsogi_pll_3ph_sfun_registry.obj
 0001:0002b380       _ssGetOutputPortDynamicArrayDataFcn 000000018002c380 f   dsogi_pll_3ph_sfun_registry.obj
 0001:0002b440       _ssGetInputPortDynamicArrayContainedDataFcn 000000018002c440 f   dsogi_pll_3ph_sfun_registry.obj
 0001:0002b500       _ssGetOutputPortDynamicArrayContainedDataFcn 000000018002c500 f   dsogi_pll_3ph_sfun_registry.obj
 0001:0002b5c0       _ssGetDynamicArrayDWorkContainedDataFcn 000000018002c5c0 f   dsogi_pll_3ph_sfun_registry.obj
 0001:0002b680       sf_process_check_sum_call  000000018002c680 f   dsogi_pll_3ph_sfun_registry.obj
 0001:0002b6d0       sf_process_get_third_party_uses_info_call 000000018002c6d0 f   dsogi_pll_3ph_sfun_registry.obj
 0001:0002b900       sf_process_get_jit_fallback_info_call 000000018002c900 f   dsogi_pll_3ph_sfun_registry.obj
 0001:0002bb30       sf_process_get_post_codegen_info_call 000000018002cb30 f   dsogi_pll_3ph_sfun_registry.obj
 0001:0002bd60       sf_process_get_updateBuildInfo_args_info_call 000000018002cd60 f   dsogi_pll_3ph_sfun_registry.obj
 0001:0002bf90       sf_process_get_eml_resolved_functions_info_call 000000018002cf90 f   dsogi_pll_3ph_sfun_registry.obj
 0001:0002c1c0       sf_mex_unlock_call         000000018002d1c0 f   dsogi_pll_3ph_sfun_registry.obj
 0001:0002c3e0       sf_machine_global_initializer_called 000000018002d3e0 f   dsogi_pll_3ph_sfun_registry.obj
 0001:0002c410       sf_machine_global_method_dispatcher 000000018002d410 f   dsogi_pll_3ph_sfun_registry.obj
 0001:0002c470       sf_machine_global_terminator 000000018002d470 f   dsogi_pll_3ph_sfun_registry.obj
 0001:0002c4a0       sf_register_machine_exported_symbols 000000018002d4a0 f   dsogi_pll_3ph_sfun_registry.obj
 0001:0002c4c0       callCustomFcn              000000018002d4c0 f   dsogi_pll_3ph_sfun_registry.obj
 0001:0002c4d0       sf_machine_global_initializer 000000018002d4d0 f   dsogi_pll_3ph_sfun_registry.obj
 0001:0002c540       mdlGetSimState             000000018002d540 f   dsogi_pll_3ph_sfun_registry.obj
 0001:0002c580       mdlSetSimState             000000018002d580 f   dsogi_pll_3ph_sfun_registry.obj
 0001:0002cef0       ProcessMexSfunctionEveryCall 000000018002def0 f   dsogi_pll_3ph_sfun_registry.obj
 0001:0002e070       __local_stdio_printf_options 000000018002f070 f i dsogi_pll_3ph_sfun_registry.obj
 0001:0002e080       _vsnprintf_l               000000018002f080 f i dsogi_pll_3ph_sfun_registry.obj
 0001:0002e100       _vsprintf_l                000000018002f100 f i dsogi_pll_3ph_sfun_registry.obj
 0001:0002e150       sprintf                    000000018002f150 f i dsogi_pll_3ph_sfun_registry.obj
 0001:0002e1a0       mexfilerequiredapiversion  000000018002f1a0 f   c_mexapi_version.obj
 0001:0002e1d0       getBitfieldFromFloat       000000018002f1d0 f   half_type.obj
 0001:0002e200       getFloatFromBitfield       000000018002f200 f   half_type.obj
 0001:0002e230       getBitfieldFromHalf        000000018002f230 f   half_type.obj
 0001:0002e250       getHalfFromBitfield        000000018002f250 f   half_type.obj
 0001:0002e280       halfToFloat                000000018002f280 f   half_type.obj
 0001:0002e330       halfToDouble               000000018002f330 f   half_type.obj
 0001:0002e360       floatToHalf                000000018002f360 f   half_type.obj
 0001:0002e5c0       doubleToHalf               000000018002f5c0 f   half_type.obj
 0001:0002e8ac       sf_load_rtw_optimization_info 000000018002f8ac f   sf_runtime:sf_runtime.dll
 0001:0002e8b2       sf_mex_decode              000000018002f8b2 f   sf_runtime:sf_runtime.dll
 0001:0002e8b8       sf_init_ChartRunTimeInfo   000000018002f8b8 f   sf_runtime:sf_runtime.dll
 0001:0002e8be       sf_free_ChartRunTimeInfo   000000018002f8be f   sf_runtime:sf_runtime.dll
 0001:0002e8c4       sf_reset_warnings_ChartRunTimeInfo 000000018002f8c4 f   sf_runtime:sf_runtime.dll
 0001:0002e8ca       sfrtGetEmlrtCtx            000000018002f8ca f   sf_runtime:sf_runtime.dll
 0001:0002e8d0       sfrtGetCovrtInstance       000000018002f8d0 f   sf_runtime:sf_runtime.dll
 0001:0002e8d6       sf_get_chart_instance_ptr  000000018002f8d6 f   sf_runtime:sf_runtime.dll
 0001:0002e8dc       sim_mode_is_rtw_gen        000000018002f8dc f   sf_runtime:sf_runtime.dll
 0001:0002e8e2       sim_mode_is_external       000000018002f8e2 f   sf_runtime:sf_runtime.dll
 0001:0002e8e8       sf_clear_rtw_identifier    000000018002f8e8 f   sf_runtime:sf_runtime.dll
 0001:0002e8ee       sf_get_time                000000018002f8ee f   sf_runtime:sf_runtime.dll
 0001:0002e8f4       sfDoAnimationWrapper       000000018002f8f4 f   sf_runtime:sf_runtime.dll
 0001:0002e8fa       setDataBrowseFcn           000000018002f8fa f   sf_runtime:sf_runtime.dll
 0001:0002e900       setDebuggerFlag            000000018002f900 f   sf_runtime:sf_runtime.dll
 0001:0002e906       sf_warn_if_symbolic_dimension_param_changed 000000018002f906 f   sf_runtime:sf_runtime.dll
 0001:0002e90c       sf_set_work_widths         000000018002f90c f   sf_runtime:sf_runtime.dll
 0001:0002e912       sfListenerCacheSimStruct   000000018002f912 f   sf_runtime:sf_runtime.dll
 0001:0002e918       sfListenerLightTerminate   000000018002f918 f   sf_runtime:sf_runtime.dll
 0001:0002e91e       sfListenerInitializeRuntimeVars 000000018002f91e f   sf_runtime:sf_runtime.dll
 0001:0002e924       sf_mex_error_message       000000018002f924 f   sf_runtime:sf_runtime.dll
 0001:0002e92a       sf_mex_create              000000018002f92a f   sf_runtime:sf_runtime.dll
 0001:0002e930       sf_mex_createcellmatrix    000000018002f930 f   sf_runtime:sf_runtime.dll
 0001:0002e936       sf_mex_setcell             000000018002f936 f   sf_runtime:sf_runtime.dll
 0001:0002e93c       sf_mex_getcell             000000018002f93c f   sf_runtime:sf_runtime.dll
 0001:0002e942       sf_mex_assign              000000018002f942 f   sf_runtime:sf_runtime.dll
 0001:0002e948       sf_mex_dup                 000000018002f948 f   sf_runtime:sf_runtime.dll
 0001:0002e94e       sf_mex_destroy             000000018002f94e f   sf_runtime:sf_runtime.dll
 0001:0002e954       sf_mex_import              000000018002f954 f   sf_runtime:sf_runtime.dll
 0001:0002e95a       ssGetInputPortSignal_wrapper 000000018002f95a f   sf_runtime:sf_runtime.dll
 0001:0002e960       ssGetOutputPortSignal_wrapper 000000018002f960 f   sf_runtime:sf_runtime.dll
 0001:0002e966       sf_mex_printf              000000018002f966 f   sf_runtime:sf_runtime.dll
 0001:0002e96c       sf_mex_call                000000018002f96c f   sf_runtime:sf_runtime.dll
 0001:0002e972       sf_get_ChartInfoStruct_CodeGen 000000018002f972 f   sf_runtime:sf_runtime.dll
 0001:0002e978       sf_get_hasSeparateUpdateOutputs 000000018002f978 f   sf_runtime:sf_runtime.dll
 0001:0002e97e       callMdlMethodAndReportError 000000018002f97e f   sf_runtime:sf_runtime.dll
 0001:0002e984       call_sf_machine_global_method_dispatcher 000000018002f984 f   sf_runtime:sf_runtime.dll
 0001:0002e98a       getRuntimeInstanceInfoAsVoid 000000018002f98a f   sf_runtime:sf_runtime.dll
 0001:0002e990       sf_mex_error_direct_call   000000018002f990 f   sf_runtime:sf_runtime.dll
 0001:0002e996       sf_clear_error_manager_info 000000018002f996 f   sf_runtime:sf_runtime.dll
 0001:0002e99c       mxIsChar_800               000000018002f99c f   libmx:libmx.dll
 0001:0002e9a2       mxGetScalar_800            000000018002f9a2 f   libmx:libmx.dll
 0001:0002e9a8       mxGetPr_800                000000018002f9a8 f   libmx:libmx.dll
 0001:0002e9ae       mxDestroyArray_800         000000018002f9ae f   libmx:libmx.dll
 0001:0002e9b4       mxCreateDoubleMatrix_800   000000018002f9b4 f   libmx:libmx.dll
 0001:0002e9ba       mxGetString_800            000000018002f9ba f   libmx:libmx.dll
 0001:0002e9c0       mxDuplicateArray_800       000000018002f9c0 f   libmx:libmx.dll
 0001:0002e9c6       mxSetField_800             000000018002f9c6 f   libmx:libmx.dll
 0001:0002e9cc       mxCreateString_800         000000018002f9cc f   libmx:libmx.dll
 0001:0002e9d2       mxCreateCellMatrix_800     000000018002f9d2 f   libmx:libmx.dll
 0001:0002e9d8       mxCreateStructMatrix_800   000000018002f9d8 f   libmx:libmx.dll
 0001:0002e9de       mxGetInf_800               000000018002f9de f   libmx:libmx.dll
 0001:0002e9e4       mxCalloc_800               000000018002f9e4 f   libmx:libmx.dll
 0001:0002e9ea       mxGetM_800                 000000018002f9ea f   libmx:libmx.dll
 0001:0002e9f0       mxGetClassID_800           000000018002f9f0 f   libmx:libmx.dll
 0001:0002e9f6       mxIsNumeric_800            000000018002f9f6 f   libmx:libmx.dll
 0001:0002e9fc       mxIsComplex_800            000000018002f9fc f   libmx:libmx.dll
 0001:0002ea02       mxGetN_800                 000000018002fa02 f   libmx:libmx.dll
 0001:0002ea08       mxCreateDoubleScalar_800   000000018002fa08 f   libmx:libmx.dll
 0001:0002ea0e       mexMakeArrayPersistent_800 000000018002fa0e f   libmex:libmex.dll
 0001:0002ea14       mexErrMsgTxt_800           000000018002fa14 f   libmex:libmex.dll
 0001:0002ea1a       mexWarnMsgTxt_800          000000018002fa1a f   libmex:libmex.dll
 0001:0002ea20       mexCallMATLAB_800          000000018002fa20 f   libmex:libmex.dll
 0001:0002ea26       mexLock_800                000000018002fa26 f   libmex:libmex.dll
 0001:0002ea2c       mexUnlock_800              000000018002fa2c f   libmex:libmex.dll
 0001:0002ea32       mexIsLocked_800            000000018002fa32 f   libmex:libmex.dll
 0001:0002ea38       utMalloc                   000000018002fa38 f   libut:libut.dll
 0001:0002ea3e       utFree                     000000018002fa3e f   libut:libut.dll
 0001:0002ea44       muDoubleScalarFloor        000000018002fa44 f   libmwmathutil:libmwmathutil.dll
 0001:0002ea4a       muDoubleScalarIsNaN        000000018002fa4a f   libmwmathutil:libmwmathutil.dll
 0001:0002ea50       muDoubleScalarIsInf        000000018002fa50 f   libmwmathutil:libmwmathutil.dll
 0001:0002ea56       emlrtLocationLoggingPushLog 000000018002fa56 f   libemlrt:libemlrt.dll
 0001:0002ea5c       emlrtLocationLoggingClearLog 000000018002fa5c f   libemlrt:libemlrt.dll
 0001:0002ea62       addResultsToFPTRepository  000000018002fa62 f   libemlrt:libemlrt.dll
 0001:0002ea68       covrtCreateStateflowInstanceData 000000018002fa68 f   libcovrt:libcovrt.dll
 0001:0002ea6e       covrtDeleteStateflowInstanceData 000000018002fa6e f   libcovrt:libcovrt.dll
 0001:0002ea74       covrtTransInitFcn          000000018002fa74 f   libcovrt:libcovrt.dll
 0001:0002ea7a       covrtStateInitFcn          000000018002fa7a f   libcovrt:libcovrt.dll
 0001:0002ea80       covrtChartInitFcn          000000018002fa80 f   libcovrt:libcovrt.dll
 0001:0002ea86       covrtSigUpdateFcn          000000018002fa86 f   libcovrt:libcovrt.dll
 0001:0002ea8c       covrtEmlInitFcn            000000018002fa8c f   libcovrt:libcovrt.dll
 0001:0002ea92       covrtEmlFcnInitFcn         000000018002fa92 f   libcovrt:libcovrt.dll
 0001:0002ea98       covrtEmlFcnEval            000000018002fa98 f   libcovrt:libcovrt.dll
 0001:0002ea9e       covrtRelationalopUpdateFcn 000000018002fa9e f   libcovrt:libcovrt.dll
 0001:0002eaa4       covrtEmlIfInitFcn          000000018002faa4 f   libcovrt:libcovrt.dll
 0001:0002eaaa       covrtEmlMCDCInitFcn        000000018002faaa f   libcovrt:libcovrt.dll
 0001:0002eab0       covrtEmlRelationalInitFcn  000000018002fab0 f   libcovrt:libcovrt.dll
 0001:0002eab6       covrtEmlIfEval             000000018002fab6 f   libcovrt:libcovrt.dll
 0001:0002eabc       covrtEmlCondEval           000000018002fabc f   libcovrt:libcovrt.dll
 0001:0002eac2       covrtEmlMcdcEval           000000018002fac2 f   libcovrt:libcovrt.dll
 0001:0002eac8       __raise_securityfailure    000000018002fac8 f   MSVCRT:gs_report.obj
 0001:0002eafc       __report_gsfailure         000000018002fafc f   MSVCRT:gs_report.obj
 0001:0002ebd0       __report_rangecheckfailure 000000018002fbd0 f   MSVCRT:gs_report.obj
 0001:0002ebe4       __report_securityfailure   000000018002fbe4 f   MSVCRT:gs_report.obj
 0001:0002ec80       __report_securityfailureEx 000000018002fc80 f   MSVCRT:gs_report.obj
 0001:0002ee74       __GSHandlerCheck           000000018002fe74 f   MSVCRT:gshandler.obj
 0001:0002ee94       __GSHandlerCheckCommon     000000018002fe94 f   MSVCRT:gshandler.obj
 0001:0002ef00       __security_check_cookie    000000018002ff00 f   MSVCRT:amdsecgs.obj
 0001:0002f25c       _CRT_INIT                  000000018003025c f   MSVCRT:dll_dllmain.obj
 0001:0002f264       _DllMainCRTStartup         0000000180030264 f   MSVCRT:dll_dllmain.obj
 0001:0002f310       __security_init_cookie     0000000180030310 f   MSVCRT:gs_support.obj
 0001:0002f3bc       DllMain                    00000001800303bc f   MSVCRT:dll_dllmain_stub.obj
 0001:0002f3e0       ?__scrt_initialize_type_info@@YAXXZ 00000001800303e0 f   MSVCRT:tncleanup.obj
 0001:0002f3f0       ?__scrt_uninitialize_type_info@@YAXXZ 00000001800303f0 f   MSVCRT:tncleanup.obj
 0001:0002f3fc       __local_stdio_scanf_options 00000001800303fc f i MSVCRT:default_local_stdio_options.obj
 0001:0002f404       __scrt_initialize_default_local_stdio_options 0000000180030404 f   MSVCRT:default_local_stdio_options.obj
 0001:0002f420       ?configure_argv@__scrt_narrow_argv_policy@@SAHXZ 0000000180030420 f i MSVCRT:utility.obj
 0001:0002f480       ?initialize_environment@__scrt_narrow_environment_policy@@SAHXZ 0000000180030480 f i MSVCRT:utility.obj
 0001:0002f4b8       NtCurrentTeb               00000001800304b8 f i MSVCRT:utility.obj
 0001:0002f4c4       __scrt_acquire_startup_lock 00000001800304c4 f   MSVCRT:utility.obj
 0001:0002f500       __scrt_dllmain_after_initialize_c 0000000180030500 f   MSVCRT:utility.obj
 0001:0002f534       __scrt_dllmain_before_initialize_c 0000000180030534 f   MSVCRT:utility.obj
 0001:0002f54c       __scrt_dllmain_crt_thread_attach 000000018003054c f   MSVCRT:utility.obj
 0001:0002f574       __scrt_dllmain_crt_thread_detach 0000000180030574 f   MSVCRT:utility.obj
 0001:0002f58c       __scrt_dllmain_exception_filter 000000018003058c f   MSVCRT:utility.obj
 0001:0002f5ec       __scrt_dllmain_uninitialize_c 00000001800305ec f   MSVCRT:utility.obj
 0001:0002f61c       __scrt_dllmain_uninitialize_critical 000000018003061c f   MSVCRT:utility.obj
 0001:0002f630       __scrt_initialize_crt      0000000180030630 f   MSVCRT:utility.obj
 0001:0002f67c       __scrt_initialize_onexit_tables 000000018003067c f   MSVCRT:utility.obj
 0001:0002f708       __scrt_is_nonwritable_in_current_image 0000000180030708 f   MSVCRT:utility.obj
 0001:0002f7a0       __scrt_release_startup_lock 00000001800307a0 f   MSVCRT:utility.obj
 0001:0002f7c4       __scrt_uninitialize_crt    00000001800307c4 f   MSVCRT:utility.obj
 0001:0002f7f0       _onexit                    00000001800307f0 f   MSVCRT:utility.obj
 0001:0002f82c       at_quick_exit              000000018003082c f   MSVCRT:utility.obj
 0001:0002f84c       atexit                     000000018003084c f   MSVCRT:utility.obj
 0001:0002f864       __scrt_get_dyn_tls_init_callback 0000000180030864 f   MSVCRT:dyn_tls_init.obj
 0001:0002f86c       __crt_debugger_hook        000000018003086c f   MSVCRT:utility_desktop.obj
 0001:0002f874       __scrt_fastfail            0000000180030874 f   MSVCRT:utility_desktop.obj
 0001:0002f9c0       __scrt_get_show_window_mode 00000001800309c0 f   MSVCRT:utility_desktop.obj
 0001:0002f9fc       __scrt_initialize_mta      00000001800309fc f   MSVCRT:utility_desktop.obj
 0001:0002fa04       __scrt_initialize_winrt    0000000180030a04 f   MSVCRT:utility_desktop.obj
 0001:0002fa08       __scrt_is_managed_app      0000000180030a08 f   MSVCRT:utility_desktop.obj
 0001:0002fa5c       __scrt_set_unhandled_exception_filter 0000000180030a5c f   MSVCRT:utility_desktop.obj
 0001:0002fa6c       __scrt_exe_initialize_mta  0000000180030a6c f   MSVCRT:utility_desktop.obj
 0001:0002fa6c       __scrt_stub_for_initialize_mta 0000000180030a6c f   MSVCRT:utility_desktop.obj
 0001:0002fa70       __scrt_unhandled_exception_filter 0000000180030a70 f   MSVCRT:utility_desktop.obj
 0001:0002facc       _RTC_Initialize            0000000180030acc f   MSVCRT:initsect.obj
 0001:0002fb08       _RTC_Terminate             0000000180030b08 f   MSVCRT:initsect.obj
 0001:0002fb44       _guard_check_icall_nop     0000000180030b44 f i MSVCRT:guard_support.obj
 0001:0002fb48       ReadNoFence64              0000000180030b48 f i MSVCRT:guard_support.obj
 0001:0002fb4c       ReadPointerNoFence         0000000180030b4c f i MSVCRT:guard_support.obj
 0001:0002fb50       __castguard_check_failure_debugbreak 0000000180030b50 f i MSVCRT:guard_support.obj
 0001:0002fb6c       __castguard_check_failure_fastfail 0000000180030b6c f i MSVCRT:guard_support.obj
 0001:0002fb90       __castguard_check_failure_nop 0000000180030b90 f i MSVCRT:guard_support.obj
 0001:0002fb94       __castguard_check_failure_os_handled 0000000180030b94 f i MSVCRT:guard_support.obj
 0001:0002fbf0       __castguard_check_failure_user_handled 0000000180030bf0 f i MSVCRT:guard_support.obj
 0001:0002fc64       __castguard_set_user_handler 0000000180030c64 f i MSVCRT:guard_support.obj
 0001:0002fc70       __castguard_slow_path_check_debugbreak 0000000180030c70 f i MSVCRT:guard_support.obj
 0001:0002fca4       __castguard_slow_path_check_fastfail 0000000180030ca4 f i MSVCRT:guard_support.obj
 0001:0002fce0       __castguard_slow_path_check_nop 0000000180030ce0 f i MSVCRT:guard_support.obj
 0001:0002fce4       __castguard_slow_path_check_os_handled 0000000180030ce4 f i MSVCRT:guard_support.obj
 0001:0002fd38       __castguard_slow_path_check_user_handled 0000000180030d38 f i MSVCRT:guard_support.obj
 0001:0002fda4       _guard_icall_checks_enforced 0000000180030da4 f i MSVCRT:guard_support.obj
 0001:0002fdbc       _guard_rf_checks_enforced  0000000180030dbc f i MSVCRT:guard_support.obj
 0001:0002fdc0       __isa_available_init       0000000180030dc0 f   MSVCRT:cpu_disp.obj
 0001:0002ff6c       _get_startup_argv_mode     0000000180030f6c f   MSVCRT:argv_mode.obj
 0001:0002ff74       __scrt_is_ucrt_dll_in_use  0000000180030f74 f   MSVCRT:ucrt_detection.obj
 0001:0002ff80       RtlCaptureContext          0000000180030f80 f   kernel32:KERNEL32.dll
 0001:0002ff86       RtlLookupFunctionEntry     0000000180030f86 f   kernel32:KERNEL32.dll
 0001:0002ff8c       RtlVirtualUnwind           0000000180030f8c f   kernel32:KERNEL32.dll
 0001:0002ff92       UnhandledExceptionFilter   0000000180030f92 f   kernel32:KERNEL32.dll
 0001:0002ff98       SetUnhandledExceptionFilter 0000000180030f98 f   kernel32:KERNEL32.dll
 0001:0002ff9e       GetCurrentProcess          0000000180030f9e f   kernel32:KERNEL32.dll
 0001:0002ffa4       TerminateProcess           0000000180030fa4 f   kernel32:KERNEL32.dll
 0001:0002ffaa       IsProcessorFeaturePresent  0000000180030faa f   kernel32:KERNEL32.dll
 0001:0002ffb0       QueryPerformanceCounter    0000000180030fb0 f   kernel32:KERNEL32.dll
 0001:0002ffb6       GetCurrentProcessId        0000000180030fb6 f   kernel32:KERNEL32.dll
 0001:0002ffbc       GetCurrentThreadId         0000000180030fbc f   kernel32:KERNEL32.dll
 0001:0002ffc2       GetSystemTimeAsFileTime    0000000180030fc2 f   kernel32:KERNEL32.dll
 0001:0002ffc8       DisableThreadLibraryCalls  0000000180030fc8 f   kernel32:KERNEL32.dll
 0001:0002ffce       InitializeSListHead        0000000180030fce f   kernel32:KERNEL32.dll
 0001:0002ffd4       IsDebuggerPresent          0000000180030fd4 f   kernel32:KERNEL32.dll
 0001:0002ffda       GetStartupInfoW            0000000180030fda f   kernel32:KERNEL32.dll
 0001:0002ffe0       GetModuleHandleW           0000000180030fe0 f   kernel32:KERNEL32.dll
 0001:0002ffe6       memset                     0000000180030fe6 f   vcruntime:VCRUNTIME140.dll
 0001:0002ffec       memcpy                     0000000180030fec f   vcruntime:VCRUNTIME140.dll
 0001:0002fff2       __C_specific_handler       0000000180030ff2 f   vcruntime:VCRUNTIME140.dll
 0001:0002fff8       __std_type_info_destroy_list 0000000180030ff8 f   vcruntime:VCRUNTIME140.dll
 0001:0002fffe       __current_exception        0000000180030ffe f   vcruntime:VCRUNTIME140.dll
 0001:00030004       __current_exception_context 0000000180031004 f   vcruntime:VCRUNTIME140.dll
 0001:0003000a       strcmp                     000000018003100a f   ucrt:api-ms-win-crt-string-l1-1-0.dll
 0001:00030010       strcat                     0000000180031010 f   ucrt:api-ms-win-crt-string-l1-1-0.dll
 0001:00030016       frexp                      0000000180031016 f   ucrt:api-ms-win-crt-math-l1-1-0.dll
 0001:0003001c       __stdio_common_vsprintf    000000018003101c f   ucrt:api-ms-win-crt-stdio-l1-1-0.dll
 0001:00030022       free                       0000000180031022 f   ucrt:api-ms-win-crt-heap-l1-1-0.dll
 0001:00030028       malloc                     0000000180031028 f   ucrt:api-ms-win-crt-heap-l1-1-0.dll
 0001:0003002e       strlen                     000000018003102e f   ucrt:api-ms-win-crt-string-l1-1-0.dll
 0001:00030034       _initterm                  0000000180031034 f   ucrt:api-ms-win-crt-runtime-l1-1-0.dll
 0001:0003003a       _initterm_e                000000018003103a f   ucrt:api-ms-win-crt-runtime-l1-1-0.dll
 0001:00030040       _seh_filter_dll            0000000180031040 f   ucrt:api-ms-win-crt-runtime-l1-1-0.dll
 0001:00030046       _configure_narrow_argv     0000000180031046 f   ucrt:api-ms-win-crt-runtime-l1-1-0.dll
 0001:0003004c       _initialize_narrow_environment 000000018003104c f   ucrt:api-ms-win-crt-runtime-l1-1-0.dll
 0001:00030052       _initialize_onexit_table   0000000180031052 f   ucrt:api-ms-win-crt-runtime-l1-1-0.dll
 0001:00030058       _register_onexit_function  0000000180031058 f   ucrt:api-ms-win-crt-runtime-l1-1-0.dll
 0001:0003005e       _execute_onexit_table      000000018003105e f   ucrt:api-ms-win-crt-runtime-l1-1-0.dll
 0001:00030064       _crt_atexit                0000000180031064 f   ucrt:api-ms-win-crt-runtime-l1-1-0.dll
 0001:0003006a       _crt_at_quick_exit         000000018003106a f   ucrt:api-ms-win-crt-runtime-l1-1-0.dll
 0001:00030070       _cexit                     0000000180031070 f   ucrt:api-ms-win-crt-runtime-l1-1-0.dll
 0001:00030076       terminate                  0000000180031076 f   ucrt:api-ms-win-crt-runtime-l1-1-0.dll
 0001:0003007c       __acrt_initialize          000000018003107c f   MSVCRT:ucrt_stubs.obj
 0001:0003007c       __scrt_stub_for_acrt_initialize 000000018003107c f   MSVCRT:ucrt_stubs.obj
 0001:0003007c       __vcrt_initialize          000000018003107c f   MSVCRT:ucrt_stubs.obj
 0001:00030080       __acrt_thread_attach       0000000180031080 f   MSVCRT:ucrt_stubs.obj
 0001:00030080       __scrt_stub_for_acrt_thread_attach 0000000180031080 f   MSVCRT:ucrt_stubs.obj
 0001:00030080       __vcrt_thread_attach       0000000180031080 f   MSVCRT:ucrt_stubs.obj
 0001:00030084       __acrt_thread_detach       0000000180031084 f   MSVCRT:ucrt_stubs.obj
 0001:00030084       __scrt_stub_for_acrt_thread_detach 0000000180031084 f   MSVCRT:ucrt_stubs.obj
 0001:00030084       __vcrt_thread_detach       0000000180031084 f   MSVCRT:ucrt_stubs.obj
 0001:00030088       __acrt_uninitialize        0000000180031088 f   MSVCRT:ucrt_stubs.obj
 0001:00030088       __scrt_stub_for_acrt_uninitialize 0000000180031088 f   MSVCRT:ucrt_stubs.obj
 0001:00030088       __vcrt_uninitialize        0000000180031088 f   MSVCRT:ucrt_stubs.obj
 0001:0003008c       __acrt_uninitialize_critical 000000018003108c f   MSVCRT:ucrt_stubs.obj
 0001:0003008c       __scrt_stub_for_acrt_uninitialize_critical 000000018003108c f   MSVCRT:ucrt_stubs.obj
 0001:0003008c       __vcrt_uninitialize_critical 000000018003108c f   MSVCRT:ucrt_stubs.obj
 0001:00030090       __scrt_stub_for_is_c_termination_complete 0000000180031090 f   MSVCRT:ucrt_stubs.obj
 0001:00030090       _is_c_termination_complete 0000000180031090 f   MSVCRT:ucrt_stubs.obj
 0001:000300b0       _guard_dispatch_icall_nop  00000001800310b0 f   MSVCRT:guard_dispatch.obj
 0001:000300d0       _guard_xfg_dispatch_icall_nop 00000001800310d0 f   MSVCRT:guard_xfg_dispatch.obj
 0002:00000000       __imp_QueryPerformanceCounter 0000000180032000     kernel32:KERNEL32.dll
 0002:00000008       __imp_IsProcessorFeaturePresent 0000000180032008     kernel32:KERNEL32.dll
 0002:00000010       __imp_RtlCaptureContext    0000000180032010     kernel32:KERNEL32.dll
 0002:00000018       __imp_GetCurrentProcessId  0000000180032018     kernel32:KERNEL32.dll
 0002:00000020       __imp_RtlLookupFunctionEntry 0000000180032020     kernel32:KERNEL32.dll
 0002:00000028       __imp_GetCurrentThreadId   0000000180032028     kernel32:KERNEL32.dll
 0002:00000030       __imp_GetSystemTimeAsFileTime 0000000180032030     kernel32:KERNEL32.dll
 0002:00000038       __imp_DisableThreadLibraryCalls 0000000180032038     kernel32:KERNEL32.dll
 0002:00000040       __imp_InitializeSListHead  0000000180032040     kernel32:KERNEL32.dll
 0002:00000048       __imp_IsDebuggerPresent    0000000180032048     kernel32:KERNEL32.dll
 0002:00000050       __imp_GetStartupInfoW      0000000180032050     kernel32:KERNEL32.dll
 0002:00000058       __imp_GetModuleHandleW     0000000180032058     kernel32:KERNEL32.dll
 0002:00000060       __imp_GetCurrentProcess    0000000180032060     kernel32:KERNEL32.dll
 0002:00000068       __imp_SetUnhandledExceptionFilter 0000000180032068     kernel32:KERNEL32.dll
 0002:00000070       __imp_TerminateProcess     0000000180032070     kernel32:KERNEL32.dll
 0002:00000078       __imp_UnhandledExceptionFilter 0000000180032078     kernel32:KERNEL32.dll
 0002:00000080       __imp_RtlVirtualUnwind     0000000180032080     kernel32:KERNEL32.dll
 0002:00000088       \177KERNEL32_NULL_THUNK_DATA 0000000180032088     kernel32:KERNEL32.dll
 0002:00000090       __imp___current_exception  0000000180032090     vcruntime:VCRUNTIME140.dll
 0002:00000098       __imp___current_exception_context 0000000180032098     vcruntime:VCRUNTIME140.dll
 0002:000000a0       __imp___std_type_info_destroy_list 00000001800320a0     vcruntime:VCRUNTIME140.dll
 0002:000000a8       __imp_memset               00000001800320a8     vcruntime:VCRUNTIME140.dll
 0002:000000b0       __imp_memcpy               00000001800320b0     vcruntime:VCRUNTIME140.dll
 0002:000000b8       __imp___C_specific_handler 00000001800320b8     vcruntime:VCRUNTIME140.dll
 0002:000000c0       \177VCRUNTIME140_NULL_THUNK_DATA 00000001800320c0     vcruntime:VCRUNTIME140.dll
 0002:000000c8       __imp_free                 00000001800320c8     ucrt:api-ms-win-crt-heap-l1-1-0.dll
 0002:000000d0       __imp_malloc               00000001800320d0     ucrt:api-ms-win-crt-heap-l1-1-0.dll
 0002:000000d8       \177api-ms-win-crt-heap-l1-1-0_NULL_THUNK_DATA 00000001800320d8     ucrt:api-ms-win-crt-heap-l1-1-0.dll
 0002:000000e0       __imp_frexp                00000001800320e0     ucrt:api-ms-win-crt-math-l1-1-0.dll
 0002:000000e8       \177api-ms-win-crt-math-l1-1-0_NULL_THUNK_DATA 00000001800320e8     ucrt:api-ms-win-crt-math-l1-1-0.dll
 0002:000000f0       __imp__configure_narrow_argv 00000001800320f0     ucrt:api-ms-win-crt-runtime-l1-1-0.dll
 0002:000000f8       __imp__seh_filter_dll      00000001800320f8     ucrt:api-ms-win-crt-runtime-l1-1-0.dll
 0002:00000100       __imp__initialize_onexit_table 0000000180032100     ucrt:api-ms-win-crt-runtime-l1-1-0.dll
 0002:00000108       __imp__register_onexit_function 0000000180032108     ucrt:api-ms-win-crt-runtime-l1-1-0.dll
 0002:00000110       __imp__execute_onexit_table 0000000180032110     ucrt:api-ms-win-crt-runtime-l1-1-0.dll
 0002:00000118       __imp__crt_atexit          0000000180032118     ucrt:api-ms-win-crt-runtime-l1-1-0.dll
 0002:00000120       __imp__crt_at_quick_exit   0000000180032120     ucrt:api-ms-win-crt-runtime-l1-1-0.dll
 0002:00000128       __imp__cexit               0000000180032128     ucrt:api-ms-win-crt-runtime-l1-1-0.dll
 0002:00000130       __imp_terminate            0000000180032130     ucrt:api-ms-win-crt-runtime-l1-1-0.dll
 0002:00000138       __imp__initialize_narrow_environment 0000000180032138     ucrt:api-ms-win-crt-runtime-l1-1-0.dll
 0002:00000140       __imp__initterm_e          0000000180032140     ucrt:api-ms-win-crt-runtime-l1-1-0.dll
 0002:00000148       __imp__initterm            0000000180032148     ucrt:api-ms-win-crt-runtime-l1-1-0.dll
 0002:00000150       \177api-ms-win-crt-runtime-l1-1-0_NULL_THUNK_DATA 0000000180032150     ucrt:api-ms-win-crt-runtime-l1-1-0.dll
 0002:00000158       __imp___stdio_common_vsprintf 0000000180032158     ucrt:api-ms-win-crt-stdio-l1-1-0.dll
 0002:00000160       \177api-ms-win-crt-stdio-l1-1-0_NULL_THUNK_DATA 0000000180032160     ucrt:api-ms-win-crt-stdio-l1-1-0.dll
 0002:00000168       __imp_strlen               0000000180032168     ucrt:api-ms-win-crt-string-l1-1-0.dll
 0002:00000170       __imp_strcat               0000000180032170     ucrt:api-ms-win-crt-string-l1-1-0.dll
 0002:00000178       __imp_strcmp               0000000180032178     ucrt:api-ms-win-crt-string-l1-1-0.dll
 0002:00000180       \177api-ms-win-crt-string-l1-1-0_NULL_THUNK_DATA 0000000180032180     ucrt:api-ms-win-crt-string-l1-1-0.dll
 0002:00000188       __imp_covrtDeleteStateflowInstanceData 0000000180032188     libcovrt:libcovrt.dll
 0002:00000190       __imp_covrtEmlMcdcEval     0000000180032190     libcovrt:libcovrt.dll
 0002:00000198       __imp_covrtEmlCondEval     0000000180032198     libcovrt:libcovrt.dll
 0002:000001a0       __imp_covrtEmlIfEval       00000001800321a0     libcovrt:libcovrt.dll
 0002:000001a8       __imp_covrtEmlRelationalInitFcn 00000001800321a8     libcovrt:libcovrt.dll
 0002:000001b0       __imp_covrtEmlMCDCInitFcn  00000001800321b0     libcovrt:libcovrt.dll
 0002:000001b8       __imp_covrtEmlIfInitFcn    00000001800321b8     libcovrt:libcovrt.dll
 0002:000001c0       __imp_covrtRelationalopUpdateFcn 00000001800321c0     libcovrt:libcovrt.dll
 0002:000001c8       __imp_covrtEmlFcnEval      00000001800321c8     libcovrt:libcovrt.dll
 0002:000001d0       __imp_covrtEmlFcnInitFcn   00000001800321d0     libcovrt:libcovrt.dll
 0002:000001d8       __imp_covrtEmlInitFcn      00000001800321d8     libcovrt:libcovrt.dll
 0002:000001e0       __imp_covrtSigUpdateFcn    00000001800321e0     libcovrt:libcovrt.dll
 0002:000001e8       __imp_covrtTransInitFcn    00000001800321e8     libcovrt:libcovrt.dll
 0002:000001f0       __imp_covrtCreateStateflowInstanceData 00000001800321f0     libcovrt:libcovrt.dll
 0002:000001f8       __imp_covrtStateInitFcn    00000001800321f8     libcovrt:libcovrt.dll
 0002:00000200       __imp_covrtChartInitFcn    0000000180032200     libcovrt:libcovrt.dll
 0002:00000208       \177libcovrt_NULL_THUNK_DATA 0000000180032208     libcovrt:libcovrt.dll
 0002:00000210       __imp_emlrtLocationLoggingClearLog 0000000180032210     libemlrt:libemlrt.dll
 0002:00000218       __imp_addResultsToFPTRepository 0000000180032218     libemlrt:libemlrt.dll
 0002:00000220       __imp_emlrtLocationLoggingPushLog 0000000180032220     libemlrt:libemlrt.dll
 0002:00000228       \177libemlrt_NULL_THUNK_DATA 0000000180032228     libemlrt:libemlrt.dll
 0002:00000230       __imp_mexMakeArrayPersistent_800 0000000180032230     libmex:libmex.dll
 0002:00000238       __imp_mexIsLocked_800      0000000180032238     libmex:libmex.dll
 0002:00000240       __imp_mexErrMsgTxt_800     0000000180032240     libmex:libmex.dll
 0002:00000248       __imp_mexUnlock_800        0000000180032248     libmex:libmex.dll
 0002:00000250       __imp_mexWarnMsgTxt_800    0000000180032250     libmex:libmex.dll
 0002:00000258       __imp_mexCallMATLAB_800    0000000180032258     libmex:libmex.dll
 0002:00000260       __imp_mexLock_800          0000000180032260     libmex:libmex.dll
 0002:00000268       \177libmex_NULL_THUNK_DATA 0000000180032268     libmex:libmex.dll
 0002:00000270       __imp_muDoubleScalarFloor  0000000180032270     libmwmathutil:libmwmathutil.dll
 0002:00000278       __imp_muDoubleScalarIsNaN  0000000180032278     libmwmathutil:libmwmathutil.dll
 0002:00000280       __imp_muDoubleScalarIsInf  0000000180032280     libmwmathutil:libmwmathutil.dll
 0002:00000288       \177libmwmathutil_NULL_THUNK_DATA 0000000180032288     libmwmathutil:libmwmathutil.dll
 0002:00000290       __imp_mxGetScalar_800      0000000180032290     libmx:libmx.dll
 0002:00000298       __imp_mxGetPr_800          0000000180032298     libmx:libmx.dll
 0002:000002a0       __imp_mxDestroyArray_800   00000001800322a0     libmx:libmx.dll
 0002:000002a8       __imp_mxCreateDoubleMatrix_800 00000001800322a8     libmx:libmx.dll
 0002:000002b0       __imp_mxCreateDoubleScalar_800 00000001800322b0     libmx:libmx.dll
 0002:000002b8       __imp_mxGetN_800           00000001800322b8     libmx:libmx.dll
 0002:000002c0       __imp_mxIsComplex_800      00000001800322c0     libmx:libmx.dll
 0002:000002c8       __imp_mxIsNumeric_800      00000001800322c8     libmx:libmx.dll
 0002:000002d0       __imp_mxGetClassID_800     00000001800322d0     libmx:libmx.dll
 0002:000002d8       __imp_mxGetM_800           00000001800322d8     libmx:libmx.dll
 0002:000002e0       __imp_mxCalloc_800         00000001800322e0     libmx:libmx.dll
 0002:000002e8       __imp_mxGetInf_800         00000001800322e8     libmx:libmx.dll
 0002:000002f0       __imp_mxCreateStructMatrix_800 00000001800322f0     libmx:libmx.dll
 0002:000002f8       __imp_mxCreateCellMatrix_800 00000001800322f8     libmx:libmx.dll
 0002:00000300       __imp_mxCreateString_800   0000000180032300     libmx:libmx.dll
 0002:00000308       __imp_mxSetField_800       0000000180032308     libmx:libmx.dll
 0002:00000310       __imp_mxDuplicateArray_800 0000000180032310     libmx:libmx.dll
 0002:00000318       __imp_mxGetString_800      0000000180032318     libmx:libmx.dll
 0002:00000320       __imp_mxIsChar_800         0000000180032320     libmx:libmx.dll
 0002:00000328       \177libmx_NULL_THUNK_DATA  0000000180032328     libmx:libmx.dll
 0002:00000330       __imp_utFree               0000000180032330     libut:libut.dll
 0002:00000338       __imp_utMalloc             0000000180032338     libut:libut.dll
 0002:00000340       \177libut_NULL_THUNK_DATA  0000000180032340     libut:libut.dll
 0002:00000348       __imp_sf_mex_decode        0000000180032348     sf_runtime:sf_runtime.dll
 0002:00000350       __imp_sf_clear_error_manager_info 0000000180032350     sf_runtime:sf_runtime.dll
 0002:00000358       __imp_sf_mex_error_direct_call 0000000180032358     sf_runtime:sf_runtime.dll
 0002:00000360       __imp_getRuntimeInstanceInfoAsVoid 0000000180032360     sf_runtime:sf_runtime.dll
 0002:00000368       __imp_call_sf_machine_global_method_dispatcher 0000000180032368     sf_runtime:sf_runtime.dll
 0002:00000370       __imp_callMdlMethodAndReportError 0000000180032370     sf_runtime:sf_runtime.dll
 0002:00000378       __imp_sf_get_hasSeparateUpdateOutputs 0000000180032378     sf_runtime:sf_runtime.dll
 0002:00000380       __imp_sf_get_ChartInfoStruct_CodeGen 0000000180032380     sf_runtime:sf_runtime.dll
 0002:00000388       __imp_sf_mex_call          0000000180032388     sf_runtime:sf_runtime.dll
 0002:00000390       __imp_sf_mex_printf        0000000180032390     sf_runtime:sf_runtime.dll
 0002:00000398       __imp_ssGetOutputPortSignal_wrapper 0000000180032398     sf_runtime:sf_runtime.dll
 0002:000003a0       __imp_ssGetInputPortSignal_wrapper 00000001800323a0     sf_runtime:sf_runtime.dll
 0002:000003a8       __imp_sf_mex_import        00000001800323a8     sf_runtime:sf_runtime.dll
 0002:000003b0       __imp_sf_mex_destroy       00000001800323b0     sf_runtime:sf_runtime.dll
 0002:000003b8       __imp_sf_mex_dup           00000001800323b8     sf_runtime:sf_runtime.dll
 0002:000003c0       __imp_sf_mex_assign        00000001800323c0     sf_runtime:sf_runtime.dll
 0002:000003c8       __imp_sf_mex_getcell       00000001800323c8     sf_runtime:sf_runtime.dll
 0002:000003d0       __imp_sf_mex_setcell       00000001800323d0     sf_runtime:sf_runtime.dll
 0002:000003d8       __imp_sf_mex_createcellmatrix 00000001800323d8     sf_runtime:sf_runtime.dll
 0002:000003e0       __imp_sf_mex_create        00000001800323e0     sf_runtime:sf_runtime.dll
 0002:000003e8       __imp_sf_mex_error_message 00000001800323e8     sf_runtime:sf_runtime.dll
 0002:000003f0       __imp_sfListenerInitializeRuntimeVars 00000001800323f0     sf_runtime:sf_runtime.dll
 0002:000003f8       __imp_sfListenerLightTerminate 00000001800323f8     sf_runtime:sf_runtime.dll
 0002:00000400       __imp_sfListenerCacheSimStruct 0000000180032400     sf_runtime:sf_runtime.dll
 0002:00000408       __imp_sf_set_work_widths   0000000180032408     sf_runtime:sf_runtime.dll
 0002:00000410       __imp_sf_warn_if_symbolic_dimension_param_changed 0000000180032410     sf_runtime:sf_runtime.dll
 0002:00000418       __imp_setDebuggerFlag      0000000180032418     sf_runtime:sf_runtime.dll
 0002:00000420       __imp_setDataBrowseFcn     0000000180032420     sf_runtime:sf_runtime.dll
 0002:00000428       __imp_sfDoAnimationWrapper 0000000180032428     sf_runtime:sf_runtime.dll
 0002:00000430       __imp_sf_get_time          0000000180032430     sf_runtime:sf_runtime.dll
 0002:00000438       __imp_sf_clear_rtw_identifier 0000000180032438     sf_runtime:sf_runtime.dll
 0002:00000440       __imp_sim_mode_is_external 0000000180032440     sf_runtime:sf_runtime.dll
 0002:00000448       __imp_sim_mode_is_rtw_gen  0000000180032448     sf_runtime:sf_runtime.dll
 0002:00000450       __imp_sf_get_chart_instance_ptr 0000000180032450     sf_runtime:sf_runtime.dll
 0002:00000458       __imp_sfrtGetCovrtInstance 0000000180032458     sf_runtime:sf_runtime.dll
 0002:00000460       __imp_sfrtGetEmlrtCtx      0000000180032460     sf_runtime:sf_runtime.dll
 0002:00000468       __imp_sf_reset_warnings_ChartRunTimeInfo 0000000180032468     sf_runtime:sf_runtime.dll
 0002:00000470       __imp_sf_free_ChartRunTimeInfo 0000000180032470     sf_runtime:sf_runtime.dll
 0002:00000478       __imp_sf_init_ChartRunTimeInfo 0000000180032478     sf_runtime:sf_runtime.dll
 0002:00000480       __imp_sf_load_rtw_optimization_info 0000000180032480     sf_runtime:sf_runtime.dll
 0002:00000488       \177sf_runtime_NULL_THUNK_DATA 0000000180032488     sf_runtime:sf_runtime.dll
 0002:00000490       __guard_check_icall_fptr   0000000180032490     MSVCRT:guard_support.obj
 0002:00000498       __guard_xfg_check_icall_fptr 0000000180032498     MSVCRT:guard_support.obj
 0002:000004a0       __guard_dispatch_icall_fptr 00000001800324a0     MSVCRT:guard_support.obj
 0002:000004a8       __guard_xfg_dispatch_icall_fptr 00000001800324a8     MSVCRT:guard_support.obj
 0002:000004b0       __guard_xfg_table_dispatch_icall_fptr 00000001800324b0     MSVCRT:guard_support.obj
 0002:000004b8       __castguard_check_failure_os_handled_fptr 00000001800324b8     MSVCRT:guard_support.obj
 0002:000004c0       __guard_memcpy_fptr        00000001800324c0     vcruntime:softmemtag.obj
 0002:000004c8       __xc_a                     00000001800324c8     MSVCRT:initializers.obj
 0002:000004d0       __xc_z                     00000001800324d0     MSVCRT:initializers.obj
 0002:000004d8       __xi_a                     00000001800324d8     MSVCRT:initializers.obj
 0002:000004e0       __xi_z                     00000001800324e0     MSVCRT:initializers.obj
 0002:000004e8       __xp_a                     00000001800324e8     MSVCRT:initializers.obj
 0002:000004f0       __xp_z                     00000001800324f0     MSVCRT:initializers.obj
 0002:000004f8       __xt_a                     00000001800324f8     MSVCRT:initializers.obj
 0002:00000500       __xt_z                     0000000180032500     MSVCRT:initializers.obj
 0002:00000510       __real@415d28c940000000    0000000180032510     dsogi_pll_3ph_sfun.obj
 0002:00000518       __real@41a935fb7a000000    0000000180032518     dsogi_pll_3ph_sfun.obj
 0002:00000520       __real@41b82a9620000000    0000000180032520     dsogi_pll_3ph_sfun.obj
 0002:00000528       __real@41c25c6bf7000000    0000000180032528     dsogi_pll_3ph_sfun.obj
 0002:00000530       __real@41c7e1b916000000    0000000180032530     dsogi_pll_3ph_sfun.obj
 0002:00000538       __real@41d6fe0789400000    0000000180032538     dsogi_pll_3ph_sfun.obj
 0002:00000540       __real@41e023d7b7a00000    0000000180032540     dsogi_pll_3ph_sfun.obj
 0002:00000548       __real@41e25b5af5800000    0000000180032548     dsogi_pll_3ph_sfun.obj
 0002:00000550       __real@41e3dc35ef000000    0000000180032550     dsogi_pll_3ph_sfun.obj
 0002:00000558       __real@41e7150d7b000000    0000000180032558     dsogi_pll_3ph_sfun.obj
 0002:00000560       __real@41e9cf9d18e00000    0000000180032560     dsogi_pll_3ph_sfun.obj
 0002:00000568       __real@41ee0a61e6400000    0000000180032568     dsogi_pll_3ph_sfun.obj
 0002:00000578       __real@0000000000000000    0000000180032578     c1_dsogi_pll_3ph.obj
 0002:00000580       __real@3f1a36e2eb1c432d    0000000180032580     c1_dsogi_pll_3ph.obj
 0002:00000588       __real@3fe0000000000000    0000000180032588     c1_dsogi_pll_3ph.obj
 0002:00000590       __real@3ff0000000000000    0000000180032590     c1_dsogi_pll_3ph.obj
 0002:00000598       __real@4000000000000000    0000000180032598     c1_dsogi_pll_3ph.obj
 0002:000005a0       __real@4010000000000000    00000001800325a0     c1_dsogi_pll_3ph.obj
 0002:000005a8       __real@4020000000000000    00000001800325a8     c1_dsogi_pll_3ph.obj
 0002:000005b0       __real@40c3880000000000    00000001800325b0     c1_dsogi_pll_3ph.obj
 0002:000005b8       __real@419cd5cde0000000    00000001800325b8     c1_dsogi_pll_3ph.obj
 0002:000005c0       __real@41d43442bdc00000    00000001800325c0     c1_dsogi_pll_3ph.obj
 0002:000005c8       __real@41dae6cef5000000    00000001800325c8     c1_dsogi_pll_3ph.obj
 0002:000005d0       __real@41e7e7df64e00000    00000001800325d0     c1_dsogi_pll_3ph.obj
 0002:000005e0       __xmm@80000000000000008000000000000000 00000001800325e0     c1_dsogi_pll_3ph.obj
 0002:00000600       __real@3fe5555555555555    0000000180032600     c10_dsogi_pll_3ph.obj
 0002:00000608       __real@3ffbb67ae8584caa    0000000180032608     c10_dsogi_pll_3ph.obj
 0002:00000610       __real@41d46c9d5e800000    0000000180032610     c10_dsogi_pll_3ph.obj
 0002:00000618       __real@41d9b9acdd000000    0000000180032618     c10_dsogi_pll_3ph.obj
 0002:00000620       __real@41ea22332c600000    0000000180032620     c10_dsogi_pll_3ph.obj
 0002:00000628       __real@41ee9de985c00000    0000000180032628     c10_dsogi_pll_3ph.obj
 0002:00000638       __real@41c63d793a800000    0000000180032638     c17_dsogi_pll_3ph.obj
 0002:00000640       __real@41c6a448c4000000    0000000180032640     c17_dsogi_pll_3ph.obj
 0002:00000648       __real@41e493e48aa00000    0000000180032648     c17_dsogi_pll_3ph.obj
 0002:00000650       __real@41e6e15b3b200000    0000000180032650     c17_dsogi_pll_3ph.obj
 0002:00000660       __real@41a5bc77e6000000    0000000180032660     c18_dsogi_pll_3ph.obj
 0002:00000668       __real@41d93b8d93c00000    0000000180032668     c18_dsogi_pll_3ph.obj
 0002:00000670       __real@41e2112533000000    0000000180032670     c18_dsogi_pll_3ph.obj
 0002:00000678       __real@41ecb1f1d8a00000    0000000180032678     c18_dsogi_pll_3ph.obj
 0002:00000698       __real@41c2250e9f800000    0000000180032698     c21_dsogi_pll_3ph.obj
 0002:000006a0       __real@41c3d69281800000    00000001800326a0     c21_dsogi_pll_3ph.obj
 0002:000006a8       __real@41e600aacda00000    00000001800326a8     c21_dsogi_pll_3ph.obj
 0002:000006b0       __real@41ecb64973800000    00000001800326b0     c21_dsogi_pll_3ph.obj
 0002:000006e8       __real@41e29b0393800000    00000001800326e8     c23_dsogi_pll_3ph.obj
 0002:000006f0       __real@41e8e631b5a00000    00000001800326f0     c23_dsogi_pll_3ph.obj
 0002:000006f8       __real@41ecadef4c200000    00000001800326f8     c23_dsogi_pll_3ph.obj
 0002:00000700       __real@41eec2ef75600000    0000000180032700     c23_dsogi_pll_3ph.obj
 0002:00000708       __real@bff0000000000000    0000000180032708     c23_dsogi_pll_3ph.obj
 0002:00000710       __real@c00921fb54442d18    0000000180032710     c23_dsogi_pll_3ph.obj
 0002:00000720       __real@4199680cc8000000    0000000180032720     c24_dsogi_pll_3ph.obj
 0002:00000728       __real@41d5d1f9f3400000    0000000180032728     c24_dsogi_pll_3ph.obj
 0002:00000730       __real@41d6c3680b400000    0000000180032730     c24_dsogi_pll_3ph.obj
 0002:00000738       __real@41e987c905800000    0000000180032738     c24_dsogi_pll_3ph.obj
 0002:00000748       __real@3fefae147ae147ad    0000000180032748     c25_dsogi_pll_3ph.obj
 0002:00000750       __real@400921fb54442d18    0000000180032750     c25_dsogi_pll_3ph.obj
 0002:00000758       __real@4069000000000000    0000000180032758     c25_dsogi_pll_3ph.obj
 0002:00000760       __real@41b61351ca000000    0000000180032760     c25_dsogi_pll_3ph.obj
 0002:00000768       __real@41e05cebffa00000    0000000180032768     c25_dsogi_pll_3ph.obj
 0002:00000770       __real@41e2f350c5200000    0000000180032770     c25_dsogi_pll_3ph.obj
 0002:00000778       __real@41e8eba070400000    0000000180032778     c25_dsogi_pll_3ph.obj
 0002:00000788       __real@41d804d742c00000    0000000180032788     c26_dsogi_pll_3ph.obj
 0002:00000790       __real@41dafb539c000000    0000000180032790     c26_dsogi_pll_3ph.obj
 0002:00000798       __real@41debd9643800000    0000000180032798     c26_dsogi_pll_3ph.obj
 0002:000007a0       __real@41ea49a25b400000    00000001800327a0     c26_dsogi_pll_3ph.obj
 0002:000007a8       DYNAMIC_DIMENSION_DEF      00000001800327a8     dsogi_pll_3ph_sfun_registry.obj
 0002:000007c0       __real@41602cbca0000000    00000001800327c0     dsogi_pll_3ph_sfun_registry.obj
 0002:000007c8       __real@77800000            00000001800327c8     half_type.obj
 0002:000007e0       _pDefaultRawDllMain        00000001800327e0     MSVCRT:dll_dllmain.obj
 0002:000007e0       _pRawDllMain               00000001800327e0     MSVCRT:dll_dllmain.obj
 0002:000007f0       __xmm@ffffffffffffffffffffffffffffffff 00000001800327f0     MSVCRT:utility.obj
 0002:00000800       _load_config_used          0000000180032800     MSVCRT:loadcfg.obj
 0002:00000980       __CastGuardVftablesStart   0000000180032980     MSVCRT:guard_support.obj
 0002:00000a00       __CastGuardVftablesEnd     0000000180032a00     MSVCRT:guard_support.obj
 0002:00000a80       __volatile_metadata        0000000180032a80     <linker-defined>
 0002:00000f98       __rtc_iaa                  0000000180032f98     MSVCRT:initsect.obj
 0002:00000fa0       __rtc_izz                  0000000180032fa0     MSVCRT:initsect.obj
 0002:00000fa8       __rtc_taa                  0000000180032fa8     MSVCRT:initsect.obj
 0002:00000fb0       __rtc_tzz                  0000000180032fb0     MSVCRT:initsect.obj
 0002:00002a6c       __IMPORT_DESCRIPTOR_sf_runtime 0000000180034a6c     sf_runtime:sf_runtime.dll
 0002:00002a80       __IMPORT_DESCRIPTOR_libmx  0000000180034a80     libmx:libmx.dll
 0002:00002a94       __IMPORT_DESCRIPTOR_libmex 0000000180034a94     libmex:libmex.dll
 0002:00002aa8       __IMPORT_DESCRIPTOR_libut  0000000180034aa8     libut:libut.dll
 0002:00002abc       __IMPORT_DESCRIPTOR_libmwmathutil 0000000180034abc     libmwmathutil:libmwmathutil.dll
 0002:00002ad0       __IMPORT_DESCRIPTOR_libemlrt 0000000180034ad0     libemlrt:libemlrt.dll
 0002:00002ae4       __IMPORT_DESCRIPTOR_libcovrt 0000000180034ae4     libcovrt:libcovrt.dll
 0002:00002af8       __IMPORT_DESCRIPTOR_KERNEL32 0000000180034af8     kernel32:KERNEL32.dll
 0002:00002b0c       __IMPORT_DESCRIPTOR_VCRUNTIME140 0000000180034b0c     vcruntime:VCRUNTIME140.dll
 0002:00002b20       __IMPORT_DESCRIPTOR_api-ms-win-crt-string-l1-1-0 0000000180034b20     ucrt:api-ms-win-crt-string-l1-1-0.dll
 0002:00002b34       __IMPORT_DESCRIPTOR_api-ms-win-crt-math-l1-1-0 0000000180034b34     ucrt:api-ms-win-crt-math-l1-1-0.dll
 0002:00002b48       __IMPORT_DESCRIPTOR_api-ms-win-crt-stdio-l1-1-0 0000000180034b48     ucrt:api-ms-win-crt-stdio-l1-1-0.dll
 0002:00002b5c       __IMPORT_DESCRIPTOR_api-ms-win-crt-heap-l1-1-0 0000000180034b5c     ucrt:api-ms-win-crt-heap-l1-1-0.dll
 0002:00002b70       __IMPORT_DESCRIPTOR_api-ms-win-crt-runtime-l1-1-0 0000000180034b70     ucrt:api-ms-win-crt-runtime-l1-1-0.dll
 0002:00002b84       __NULL_IMPORT_DESCRIPTOR   0000000180034b84     sf_runtime:sf_runtime.dll
 0003:00008630       DYNAMIC_DIMENSION          000000018003e630     dsogi_pll_3ph_sfun_registry.obj
 0003:0000ac10       __security_cookie_complement 0000000180040c10     MSVCRT:gs_cookie.obj
 0003:0000ac18       __security_cookie          0000000180040c18     MSVCRT:gs_cookie.obj
 0003:0000ac20       _fltused                   0000000180040c20     MSVCRT:fltused.obj
 0003:0000ac24       __scrt_native_dllmain_reason 0000000180040c24     MSVCRT:utility.obj
 0003:0000ac28       __isa_available            0000000180040c28     MSVCRT:cpu_disp.obj
 0003:0000ac2c       __isa_enabled              0000000180040c2c     MSVCRT:cpu_disp.obj
 0003:0000ac30       __memset_fast_string_threshold 0000000180040c30     MSVCRT:cpu_disp.obj
 0003:0000ac38       __memset_nt_threshold      0000000180040c38     MSVCRT:cpu_disp.obj
 0003:0000ac40       __scrt_ucrt_dll_is_in_use  0000000180040c40     MSVCRT:ucrt_stubs.obj
 0003:000101c0       ?__type_info_root_node@@3U__type_info_node@@A 00000001800461c0     MSVCRT:tncleanup.obj
 0003:000101d0       ?_OptionsStorage@?1??__local_stdio_printf_options@@9@4_KA 00000001800461d0     MSVCRT:default_local_stdio_options.obj
 0003:000101d8       ?_OptionsStorage@?1??__local_stdio_scanf_options@@9@4_KA 00000001800461d8     MSVCRT:default_local_stdio_options.obj
 0003:000101e0       __scrt_current_native_startup_state 00000001800461e0     MSVCRT:utility.obj
 0003:000101e8       __scrt_native_startup_lock 00000001800461e8     MSVCRT:utility.obj
 0003:00010228       __scrt_debugger_hook_flag  0000000180046228     MSVCRT:utility_desktop.obj
 0003:00010230       __castguard_check_failure_user_handled_fptr 0000000180046230     MSVCRT:guard_support.obj
 0003:00010238       __favor                    0000000180046238     MSVCRT:cpu_disp.obj
 0003:00010240       ?_OptionsStorage@?1??__local_stdio_printf_options@@9@9 0000000180046240     <common>
 0003:00010248       __dyn_tls_init_callback    0000000180046248     <common>

 entry point at        0001:0002f264

 Static symbols

 0000:00000000       _volmd                     0000000180000000     c10_dsogi_pll_3ph.obj
 0000:00000000       _volmd                     0000000180000000     c17_dsogi_pll_3ph.obj
 0000:00000000       _volmd                     0000000180000000     c18_dsogi_pll_3ph.obj
 0000:00000000       _volmd                     0000000180000000     c19_dsogi_pll_3ph.obj
 0000:00000000       _volmd                     0000000180000000     c1_dsogi_pll_3ph.obj
 0000:00000000       _volmd                     0000000180000000     c20_dsogi_pll_3ph.obj
 0000:00000000       _volmd                     0000000180000000     c21_dsogi_pll_3ph.obj
 0000:00000000       _volmd                     0000000180000000     c22_dsogi_pll_3ph.obj
 0000:00000000       _volmd                     0000000180000000     c23_dsogi_pll_3ph.obj
 0000:00000000       _volmd                     0000000180000000     c24_dsogi_pll_3ph.obj
 0000:00000000       _volmd                     0000000180000000     c25_dsogi_pll_3ph.obj
 0000:00000000       _volmd                     0000000180000000     c26_dsogi_pll_3ph.obj
 0000:00000000       _volmd                     0000000180000000     c2_dsogi_pll_3ph.obj
 0000:00000000       .debug$S                   0000000180000000     dsogi_pll_3ph_sfun.exp
 0000:00000000       _volmd                     0000000180000000     dsogi_pll_3ph_sfun.obj
 0000:00000000       _volmd                     0000000180000000     dsogi_pll_3ph_sfun_registry.obj
 0000:00000000       .debug$S                   0000000180000000     ucrt:api-ms-win-crt-heap-l1-1-0.dll
 0000:00000000       .debug$S                   0000000180000000     ucrt:api-ms-win-crt-heap-l1-1-0.dll
 0000:00000000       .debug$S                   0000000180000000     ucrt:api-ms-win-crt-math-l1-1-0.dll
 0000:00000000       .debug$S                   0000000180000000     ucrt:api-ms-win-crt-runtime-l1-1-0.dll
 0000:00000000       .debug$S                   0000000180000000     ucrt:api-ms-win-crt-runtime-l1-1-0.dll
 0000:00000000       .debug$S                   0000000180000000     ucrt:api-ms-win-crt-runtime-l1-1-0.dll
 0000:00000000       .debug$S                   0000000180000000     ucrt:api-ms-win-crt-runtime-l1-1-0.dll
 0000:00000000       .debug$S                   0000000180000000     ucrt:api-ms-win-crt-runtime-l1-1-0.dll
 0000:00000000       .debug$S                   0000000180000000     ucrt:api-ms-win-crt-runtime-l1-1-0.dll
 0000:00000000       .debug$S                   0000000180000000     ucrt:api-ms-win-crt-runtime-l1-1-0.dll
 0000:00000000       .debug$S                   0000000180000000     ucrt:api-ms-win-crt-runtime-l1-1-0.dll
 0000:00000000       .debug$S                   0000000180000000     ucrt:api-ms-win-crt-runtime-l1-1-0.dll
 0000:00000000       .debug$S                   0000000180000000     ucrt:api-ms-win-crt-runtime-l1-1-0.dll
 0000:00000000       .debug$S                   0000000180000000     ucrt:api-ms-win-crt-runtime-l1-1-0.dll
 0000:00000000       .debug$S                   0000000180000000     ucrt:api-ms-win-crt-runtime-l1-1-0.dll
 0000:00000000       .debug$S                   0000000180000000     ucrt:api-ms-win-crt-stdio-l1-1-0.dll
 0000:00000000       .debug$S                   0000000180000000     ucrt:api-ms-win-crt-string-l1-1-0.dll
 0000:00000000       .debug$S                   0000000180000000     ucrt:api-ms-win-crt-string-l1-1-0.dll
 0000:00000000       .debug$S                   0000000180000000     ucrt:api-ms-win-crt-string-l1-1-0.dll
 0000:00000000       .debug$S                   0000000180000000     kernel32:KERNEL32.dll
 0000:00000000       .debug$S                   0000000180000000     kernel32:KERNEL32.dll
 0000:00000000       .debug$S                   0000000180000000     kernel32:KERNEL32.dll
 0000:00000000       .debug$S                   0000000180000000     kernel32:KERNEL32.dll
 0000:00000000       .debug$S                   0000000180000000     kernel32:KERNEL32.dll
 0000:00000000       .debug$S                   0000000180000000     kernel32:KERNEL32.dll
 0000:00000000       .debug$S                   0000000180000000     kernel32:KERNEL32.dll
 0000:00000000       .debug$S                   0000000180000000     kernel32:KERNEL32.dll
 0000:00000000       .debug$S                   0000000180000000     kernel32:KERNEL32.dll
 0000:00000000       .debug$S                   0000000180000000     kernel32:KERNEL32.dll
 0000:00000000       .debug$S                   0000000180000000     kernel32:KERNEL32.dll
 0000:00000000       .debug$S                   0000000180000000     kernel32:KERNEL32.dll
 0000:00000000       .debug$S                   0000000180000000     kernel32:KERNEL32.dll
 0000:00000000       .debug$S                   0000000180000000     kernel32:KERNEL32.dll
 0000:00000000       .debug$S                   0000000180000000     kernel32:KERNEL32.dll
 0000:00000000       .debug$S                   0000000180000000     kernel32:KERNEL32.dll
 0000:00000000       .debug$S                   0000000180000000     kernel32:KERNEL32.dll
 0000:00000000       .debug$S                   0000000180000000     libcovrt:libcovrt.dll
 0000:00000000       .debug$S                   0000000180000000     libcovrt:libcovrt.dll
 0000:00000000       .debug$S                   0000000180000000     libcovrt:libcovrt.dll
 0000:00000000       .debug$S                   0000000180000000     libcovrt:libcovrt.dll
 0000:00000000       .debug$S                   0000000180000000     libcovrt:libcovrt.dll
 0000:00000000       .debug$S                   0000000180000000     libcovrt:libcovrt.dll
 0000:00000000       .debug$S                   0000000180000000     libcovrt:libcovrt.dll
 0000:00000000       .debug$S                   0000000180000000     libcovrt:libcovrt.dll
 0000:00000000       .debug$S                   0000000180000000     libcovrt:libcovrt.dll
 0000:00000000       .debug$S                   0000000180000000     libcovrt:libcovrt.dll
 0000:00000000       .debug$S                   0000000180000000     libcovrt:libcovrt.dll
 0000:00000000       .debug$S                   0000000180000000     libcovrt:libcovrt.dll
 0000:00000000       .debug$S                   0000000180000000     libcovrt:libcovrt.dll
 0000:00000000       .debug$S                   0000000180000000     libcovrt:libcovrt.dll
 0000:00000000       .debug$S                   0000000180000000     libcovrt:libcovrt.dll
 0000:00000000       .debug$S                   0000000180000000     libcovrt:libcovrt.dll
 0000:00000000       .debug$S                   0000000180000000     libemlrt:libemlrt.dll
 0000:00000000       .debug$S                   0000000180000000     libemlrt:libemlrt.dll
 0000:00000000       .debug$S                   0000000180000000     libemlrt:libemlrt.dll
 0000:00000000       .debug$S                   0000000180000000     libmex:libmex.dll
 0000:00000000       .debug$S                   0000000180000000     libmex:libmex.dll
 0000:00000000       .debug$S                   0000000180000000     libmex:libmex.dll
 0000:00000000       .debug$S                   0000000180000000     libmex:libmex.dll
 0000:00000000       .debug$S                   0000000180000000     libmex:libmex.dll
 0000:00000000       .debug$S                   0000000180000000     libmex:libmex.dll
 0000:00000000       .debug$S                   0000000180000000     libmex:libmex.dll
 0000:00000000       .debug$S                   0000000180000000     libmwmathutil:libmwmathutil.dll
 0000:00000000       .debug$S                   0000000180000000     libmwmathutil:libmwmathutil.dll
 0000:00000000       .debug$S                   0000000180000000     libmwmathutil:libmwmathutil.dll
 0000:00000000       .debug$S                   0000000180000000     libmx:libmx.dll
 0000:00000000       .debug$S                   0000000180000000     libmx:libmx.dll
 0000:00000000       .debug$S                   0000000180000000     libmx:libmx.dll
 0000:00000000       .debug$S                   0000000180000000     libmx:libmx.dll
 0000:00000000       .debug$S                   0000000180000000     libmx:libmx.dll
 0000:00000000       .debug$S                   0000000180000000     libmx:libmx.dll
 0000:00000000       .debug$S                   0000000180000000     libmx:libmx.dll
 0000:00000000       .debug$S                   0000000180000000     libmx:libmx.dll
 0000:00000000       .debug$S                   0000000180000000     libmx:libmx.dll
 0000:00000000       .debug$S                   0000000180000000     libmx:libmx.dll
 0000:00000000       .debug$S                   0000000180000000     libmx:libmx.dll
 0000:00000000       .debug$S                   0000000180000000     libmx:libmx.dll
 0000:00000000       .debug$S                   0000000180000000     libmx:libmx.dll
 0000:00000000       .debug$S                   0000000180000000     libmx:libmx.dll
 0000:00000000       .debug$S                   0000000180000000     libmx:libmx.dll
 0000:00000000       .debug$S                   0000000180000000     libmx:libmx.dll
 0000:00000000       .debug$S                   0000000180000000     libmx:libmx.dll
 0000:00000000       .debug$S                   0000000180000000     libmx:libmx.dll
 0000:00000000       .debug$S                   0000000180000000     libmx:libmx.dll
 0000:00000000       .debug$S                   0000000180000000     libut:libut.dll
 0000:00000000       .debug$S                   0000000180000000     libut:libut.dll
 0000:00000000       .debug$S                   0000000180000000     sf_runtime:sf_runtime.dll
 0000:00000000       .debug$S                   0000000180000000     sf_runtime:sf_runtime.dll
 0000:00000000       .debug$S                   0000000180000000     sf_runtime:sf_runtime.dll
 0000:00000000       .debug$S                   0000000180000000     sf_runtime:sf_runtime.dll
 0000:00000000       .debug$S                   0000000180000000     sf_runtime:sf_runtime.dll
 0000:00000000       .debug$S                   0000000180000000     sf_runtime:sf_runtime.dll
 0000:00000000       .debug$S                   0000000180000000     sf_runtime:sf_runtime.dll
 0000:00000000       .debug$S                   0000000180000000     sf_runtime:sf_runtime.dll
 0000:00000000       .debug$S                   0000000180000000     sf_runtime:sf_runtime.dll
 0000:00000000       .debug$S                   0000000180000000     sf_runtime:sf_runtime.dll
 0000:00000000       .debug$S                   0000000180000000     sf_runtime:sf_runtime.dll
 0000:00000000       .debug$S                   0000000180000000     sf_runtime:sf_runtime.dll
 0000:00000000       .debug$S                   0000000180000000     sf_runtime:sf_runtime.dll
 0000:00000000       .debug$S                   0000000180000000     sf_runtime:sf_runtime.dll
 0000:00000000       .debug$S                   0000000180000000     sf_runtime:sf_runtime.dll
 0000:00000000       .debug$S                   0000000180000000     sf_runtime:sf_runtime.dll
 0000:00000000       .debug$S                   0000000180000000     sf_runtime:sf_runtime.dll
 0000:00000000       .debug$S                   0000000180000000     sf_runtime:sf_runtime.dll
 0000:00000000       .debug$S                   0000000180000000     sf_runtime:sf_runtime.dll
 0000:00000000       .debug$S                   0000000180000000     sf_runtime:sf_runtime.dll
 0000:00000000       .debug$S                   0000000180000000     sf_runtime:sf_runtime.dll
 0000:00000000       .debug$S                   0000000180000000     sf_runtime:sf_runtime.dll
 0000:00000000       .debug$S                   0000000180000000     sf_runtime:sf_runtime.dll
 0000:00000000       .debug$S                   0000000180000000     sf_runtime:sf_runtime.dll
 0000:00000000       .debug$S                   0000000180000000     sf_runtime:sf_runtime.dll
 0000:00000000       .debug$S                   0000000180000000     sf_runtime:sf_runtime.dll
 0000:00000000       .debug$S                   0000000180000000     sf_runtime:sf_runtime.dll
 0000:00000000       .debug$S                   0000000180000000     sf_runtime:sf_runtime.dll
 0000:00000000       .debug$S                   0000000180000000     sf_runtime:sf_runtime.dll
 0000:00000000       .debug$S                   0000000180000000     sf_runtime:sf_runtime.dll
 0000:00000000       .debug$S                   0000000180000000     sf_runtime:sf_runtime.dll
 0000:00000000       .debug$S                   0000000180000000     sf_runtime:sf_runtime.dll
 0000:00000000       .debug$S                   0000000180000000     sf_runtime:sf_runtime.dll
 0000:00000000       .debug$S                   0000000180000000     sf_runtime:sf_runtime.dll
 0000:00000000       .debug$S                   0000000180000000     sf_runtime:sf_runtime.dll
 0000:00000000       .debug$S                   0000000180000000     sf_runtime:sf_runtime.dll
 0000:00000000       .debug$S                   0000000180000000     sf_runtime:sf_runtime.dll
 0000:00000000       .debug$S                   0000000180000000     sf_runtime:sf_runtime.dll
 0000:00000000       .debug$S                   0000000180000000     sf_runtime:sf_runtime.dll
 0000:00000000       .debug$S                   0000000180000000     sf_runtime:sf_runtime.dll
 0000:00000000       _volmd                     0000000180000000     MSVCRT:cpu_disp.obj
 0002:fffce000       __guard_ehcont_?dllmain_dispatch@@YAHQEAUHINSTANCE__@@KQEAX@Z 0000000180000000     MSVCRT:dll_dllmain.obj
 0002:fffce000       __guard_fids_?dllmain_dispatch@@YAHQEAUHINSTANCE__@@KQEAX@Z 0000000180000000     MSVCRT:dll_dllmain.obj
 0000:00000000       _volmd                     0000000180000000     MSVCRT:gs_report.obj
 0000:00000000       _volmd                     0000000180000000     MSVCRT:gs_report.obj
 0000:00000000       _volmd                     0000000180000000     MSVCRT:gs_report.obj
 0002:fffce000       __guard_fids__             0000000180000000     MSVCRT:guard_support.obj
 0002:fffce000       __guard_fids__             0000000180000000     MSVCRT:guard_support.obj
 0002:fffce000       __guard_fids__guard_icall_checks_enforced 0000000180000000     MSVCRT:guard_support.obj
 0000:00000000       _volmd                     0000000180000000     MSVCRT:guard_support.obj
 0000:00000000       _volmd                     0000000180000000     MSVCRT:guard_support.obj
 0000:00000000       _volmd                     0000000180000000     MSVCRT:guard_support.obj
 0000:00000000       _volmd                     0000000180000000     MSVCRT:guard_support.obj
 0000:00000000       _volmd                     0000000180000000     MSVCRT:guard_support.obj
 0000:00000000       _volmd                     0000000180000000     MSVCRT:guard_support.obj
 0000:00000000       _volmd                     0000000180000000     MSVCRT:guard_support.obj
 0000:00000000       _volmd                     0000000180000000     MSVCRT:guard_support.obj
 0000:00000000       _volmd                     0000000180000000     MSVCRT:guard_support.obj
 0000:00000000       _volmd                     0000000180000000     MSVCRT:guard_support.obj
 0002:fffce000       __guard_ehcont___scrt_is_nonwritable_in_current_image 0000000180000000     MSVCRT:utility.obj
 0000:00000000       _volmd                     0000000180000000     MSVCRT:utility.obj
 0000:00000000       _volmd                     0000000180000000     MSVCRT:utility.obj
 0000:00000000       _volmd                     0000000180000000     MSVCRT:utility.obj
 0002:fffce000       __guard_fids___scrt_set_unhandled_exception_filter 0000000180000000     MSVCRT:utility_desktop.obj
 0000:00000000       _volmd                     0000000180000000     MSVCRT:utility_desktop.obj
 0002:fffce000       __guard_fids__             0000000180000000     vcruntime:softmemtag.obj
 0000:00000000       .debug$S                   0000000180000000     vcruntime:VCRUNTIME140.dll
 0000:00000000       .debug$S                   0000000180000000     vcruntime:VCRUNTIME140.dll
 0000:00000000       .debug$S                   0000000180000000     vcruntime:VCRUNTIME140.dll
 0000:00000000       .debug$S                   0000000180000000     vcruntime:VCRUNTIME140.dll
 0000:00000000       .debug$S                   0000000180000000     vcruntime:VCRUNTIME140.dll
 0000:00000000       .debug$S                   0000000180000000     vcruntime:VCRUNTIME140.dll
 0000:00000010       _volmd                     0000000180000010     c10_dsogi_pll_3ph.obj
 0000:00000010       _volmd                     0000000180000010     c17_dsogi_pll_3ph.obj
 0000:00000010       _volmd                     0000000180000010     c18_dsogi_pll_3ph.obj
 0000:00000010       _volmd                     0000000180000010     c19_dsogi_pll_3ph.obj
 0000:00000010       _volmd                     0000000180000010     c1_dsogi_pll_3ph.obj
 0000:00000010       _volmd                     0000000180000010     c20_dsogi_pll_3ph.obj
 0000:00000010       _volmd                     0000000180000010     c21_dsogi_pll_3ph.obj
 0000:00000010       _volmd                     0000000180000010     c22_dsogi_pll_3ph.obj
 0000:00000010       _volmd                     0000000180000010     c23_dsogi_pll_3ph.obj
 0000:00000010       _volmd                     0000000180000010     c24_dsogi_pll_3ph.obj
 0000:00000010       _volmd                     0000000180000010     c25_dsogi_pll_3ph.obj
 0000:00000010       _volmd                     0000000180000010     c26_dsogi_pll_3ph.obj
 0000:00000010       _volmd                     0000000180000010     c2_dsogi_pll_3ph.obj
 0000:00000010       _volmd                     0000000180000010     dsogi_pll_3ph_sfun.obj
 0000:00000010       _volmd                     0000000180000010     dsogi_pll_3ph_sfun_registry.obj
 0000:00000020       _volmd                     0000000180000020     c10_dsogi_pll_3ph.obj
 0000:00000020       _volmd                     0000000180000020     c17_dsogi_pll_3ph.obj
 0000:00000020       _volmd                     0000000180000020     c18_dsogi_pll_3ph.obj
 0000:00000020       _volmd                     0000000180000020     c19_dsogi_pll_3ph.obj
 0000:00000020       _volmd                     0000000180000020     c1_dsogi_pll_3ph.obj
 0000:00000020       _volmd                     0000000180000020     c20_dsogi_pll_3ph.obj
 0000:00000020       _volmd                     0000000180000020     c21_dsogi_pll_3ph.obj
 0000:00000020       _volmd                     0000000180000020     c22_dsogi_pll_3ph.obj
 0000:00000020       _volmd                     0000000180000020     c23_dsogi_pll_3ph.obj
 0000:00000020       _volmd                     0000000180000020     c24_dsogi_pll_3ph.obj
 0000:00000020       _volmd                     0000000180000020     c25_dsogi_pll_3ph.obj
 0000:00000020       _volmd                     0000000180000020     c26_dsogi_pll_3ph.obj
 0000:00000020       _volmd                     0000000180000020     c2_dsogi_pll_3ph.obj
 0000:00000020       _volmd                     0000000180000020     dsogi_pll_3ph_sfun.obj
 0000:00000020       _volmd                     0000000180000020     dsogi_pll_3ph_sfun_registry.obj
 0000:00000030       _volmd                     0000000180000030     dsogi_pll_3ph_sfun.obj
 0000:00000030       _volmd                     0000000180000030     dsogi_pll_3ph_sfun_registry.obj
 0000:00000040       _volmd                     0000000180000040     dsogi_pll_3ph_sfun.obj
 0000:00000040       _volmd                     0000000180000040     dsogi_pll_3ph_sfun_registry.obj
 0000:00000050       _volmd                     0000000180000050     dsogi_pll_3ph_sfun.obj
 0000:00000050       _volmd                     0000000180000050     dsogi_pll_3ph_sfun_registry.obj
 0000:00000060       _volmd                     0000000180000060     dsogi_pll_3ph_sfun_registry.obj
 0000:00000070       _volmd                     0000000180000070     dsogi_pll_3ph_sfun_registry.obj
 0000:00000080       _volmd                     0000000180000080     dsogi_pll_3ph_sfun_registry.obj
 0000:00000090       _volmd                     0000000180000090     dsogi_pll_3ph_sfun_registry.obj
 0000:000000a0       _volmd                     00000001800000a0     dsogi_pll_3ph_sfun_registry.obj
 0000:000000b0       _volmd                     00000001800000b0     dsogi_pll_3ph_sfun_registry.obj
 0000:000000c0       _volmd                     00000001800000c0     dsogi_pll_3ph_sfun_registry.obj
 0000:000000d0       _volmd                     00000001800000d0     dsogi_pll_3ph_sfun_registry.obj
 0000:000000e0       _volmd                     00000001800000e0     dsogi_pll_3ph_sfun_registry.obj
 0000:000000f0       _volmd                     00000001800000f0     dsogi_pll_3ph_sfun_registry.obj
 0000:00000100       _volmd                     0000000180000100     dsogi_pll_3ph_sfun_registry.obj
 0001:000008b4       $LN34                      00000001800018b4     dsogi_pll_3ph_sfun.obj
 0001:00000f14       $LN39                      0000000180001f14     dsogi_pll_3ph_sfun.obj
 0001:000013e0       $LN39                      00000001800023e0     dsogi_pll_3ph_sfun.obj
 0001:000018a0       $LN39                      00000001800028a0     dsogi_pll_3ph_sfun.obj
 0001:00001e68       $LN39                      0000000180002e68     dsogi_pll_3ph_sfun.obj
 0001:00002330       $LN39                      0000000180003330     dsogi_pll_3ph_sfun.obj
 0001:00002580       initialize_c1_dsogi_pll_3ph 0000000180003580 f   c1_dsogi_pll_3ph.obj
 0001:00002610       initialize_params_c1_dsogi_pll_3ph 0000000180003610 f   c1_dsogi_pll_3ph.obj
 0001:00002620       mdl_start_c1_dsogi_pll_3ph 0000000180003620 f   c1_dsogi_pll_3ph.obj
 0001:00002650       mdl_terminate_c1_dsogi_pll_3ph 0000000180003650 f   c1_dsogi_pll_3ph.obj
 0001:00003950       mdl_setup_runtime_resources_c1_dsogi_pll_3ph 0000000180004950 f   c1_dsogi_pll_3ph.obj
 0001:00003bb0       mdl_cleanup_runtime_resources_c1_dsogi_pll_3ph 0000000180004bb0 f   c1_dsogi_pll_3ph.obj
 0001:00003bf0       enable_c1_dsogi_pll_3ph    0000000180004bf0 f   c1_dsogi_pll_3ph.obj
 0001:00003c20       disable_c1_dsogi_pll_3ph   0000000180004c20 f   c1_dsogi_pll_3ph.obj
 0001:00003c50       sf_gateway_c1_dsogi_pll_3ph 0000000180004c50 f   c1_dsogi_pll_3ph.obj
 0001:000050c0       c1_do_animation_call_c1_dsogi_pll_3ph 00000001800060c0 f   c1_dsogi_pll_3ph.obj
 0001:00005100       get_sim_state_c1_dsogi_pll_3ph 0000000180006100 f   c1_dsogi_pll_3ph.obj
 0001:000052d0       set_sim_state_c1_dsogi_pll_3ph 00000001800062d0 f   c1_dsogi_pll_3ph.obj
 0001:000053d0       initSubchartIOPointersc1_dsogi_pll_3ph 00000001800063d0 f   c1_dsogi_pll_3ph.obj
 0001:000053e0       c1_emlrt_update_log_1      00000001800063e0 f   c1_dsogi_pll_3ph.obj
 0001:000056c0       c1_emlrtInitVarDataTables  00000001800066c0 f   c1_dsogi_pll_3ph.obj
 0001:000058a0       c1_emlrt_marshallIn        00000001800068a0 f   c1_dsogi_pll_3ph.obj
 0001:00005910       c1_b_emlrt_marshallIn      0000000180006910 f   c1_dsogi_pll_3ph.obj
 0001:000059a0       c1_c_emlrt_marshallIn      00000001800069a0 f   c1_dsogi_pll_3ph.obj
 0001:00005a10       c1_d_emlrt_marshallIn      0000000180006a10 f   c1_dsogi_pll_3ph.obj
 0001:00005aa0       c1_chart_data_browse_helper 0000000180006aa0 f   c1_dsogi_pll_3ph.obj
 0001:00005f0c       $LN15                      0000000180006f0c     c1_dsogi_pll_3ph.obj
 0001:00005f40       init_dsm_address_info      0000000180006f40 f   c1_dsogi_pll_3ph.obj
 0001:00005f50       init_simulink_io_address   0000000180006f50 f   c1_dsogi_pll_3ph.obj
 0001:000062b0       sf_get_sim_state_info_c1_dsogi_pll_3ph 00000001800072b0 f   c1_dsogi_pll_3ph.obj
 0001:00006370       sf_opaque_initialize_c1_dsogi_pll_3ph 0000000180007370 f   c1_dsogi_pll_3ph.obj
 0001:000063a0       sf_opaque_enable_c1_dsogi_pll_3ph 00000001800073a0 f   c1_dsogi_pll_3ph.obj
 0001:000063c0       sf_opaque_disable_c1_dsogi_pll_3ph 00000001800073c0 f   c1_dsogi_pll_3ph.obj
 0001:000063e0       sf_opaque_gateway_c1_dsogi_pll_3ph 00000001800073e0 f   c1_dsogi_pll_3ph.obj
 0001:00006400       sf_opaque_get_sim_state_c1_dsogi_pll_3ph 0000000180007400 f   c1_dsogi_pll_3ph.obj
 0001:00006430       sf_opaque_set_sim_state_c1_dsogi_pll_3ph 0000000180007430 f   c1_dsogi_pll_3ph.obj
 0001:00006460       sf_opaque_cleanup_runtime_resources_c1_dsogi_pll_3ph 0000000180007460 f   c1_dsogi_pll_3ph.obj
 0001:00006500       sf_opaque_mdl_start_c1_dsogi_pll_3ph 0000000180007500 f   c1_dsogi_pll_3ph.obj
 0001:00006540       sf_opaque_mdl_terminate_c1_dsogi_pll_3ph 0000000180007540 f   c1_dsogi_pll_3ph.obj
 0001:00006560       mdlProcessParameters_c1_dsogi_pll_3ph 0000000180007560 f   c1_dsogi_pll_3ph.obj
 0001:00006810       mdlSetWorkWidths_c1_dsogi_pll_3ph 0000000180007810 f   c1_dsogi_pll_3ph.obj
 0001:000068a0       mdlRTW_c1_dsogi_pll_3ph    00000001800078a0 f   c1_dsogi_pll_3ph.obj
 0001:000068e0       mdlSetupRuntimeResources_c1_dsogi_pll_3ph 00000001800078e0 f   c1_dsogi_pll_3ph.obj
 0001:00006d10       initialize_c2_dsogi_pll_3ph 0000000180007d10 f   c2_dsogi_pll_3ph.obj
 0001:00006da0       initialize_params_c2_dsogi_pll_3ph 0000000180007da0 f   c2_dsogi_pll_3ph.obj
 0001:00006db0       mdl_start_c2_dsogi_pll_3ph 0000000180007db0 f   c2_dsogi_pll_3ph.obj
 0001:00006de0       mdl_terminate_c2_dsogi_pll_3ph 0000000180007de0 f   c2_dsogi_pll_3ph.obj
 0001:000080e0       mdl_setup_runtime_resources_c2_dsogi_pll_3ph 00000001800090e0 f   c2_dsogi_pll_3ph.obj
 0001:00008340       mdl_cleanup_runtime_resources_c2_dsogi_pll_3ph 0000000180009340 f   c2_dsogi_pll_3ph.obj
 0001:00008380       enable_c2_dsogi_pll_3ph    0000000180009380 f   c2_dsogi_pll_3ph.obj
 0001:000083b0       disable_c2_dsogi_pll_3ph   00000001800093b0 f   c2_dsogi_pll_3ph.obj
 0001:000083e0       sf_gateway_c2_dsogi_pll_3ph 00000001800093e0 f   c2_dsogi_pll_3ph.obj
 0001:00009850       c2_do_animation_call_c2_dsogi_pll_3ph 000000018000a850 f   c2_dsogi_pll_3ph.obj
 0001:00009890       get_sim_state_c2_dsogi_pll_3ph 000000018000a890 f   c2_dsogi_pll_3ph.obj
 0001:00009a60       set_sim_state_c2_dsogi_pll_3ph 000000018000aa60 f   c2_dsogi_pll_3ph.obj
 0001:00009b60       initSubchartIOPointersc2_dsogi_pll_3ph 000000018000ab60 f   c2_dsogi_pll_3ph.obj
 0001:00009b70       c2_emlrt_update_log_1      000000018000ab70 f   c2_dsogi_pll_3ph.obj
 0001:00009e50       c2_emlrtInitVarDataTables  000000018000ae50 f   c2_dsogi_pll_3ph.obj
 0001:0000a030       c2_emlrt_marshallIn        000000018000b030 f   c2_dsogi_pll_3ph.obj
 0001:0000a0a0       c2_b_emlrt_marshallIn      000000018000b0a0 f   c2_dsogi_pll_3ph.obj
 0001:0000a130       c2_c_emlrt_marshallIn      000000018000b130 f   c2_dsogi_pll_3ph.obj
 0001:0000a1a0       c2_d_emlrt_marshallIn      000000018000b1a0 f   c2_dsogi_pll_3ph.obj
 0001:0000a230       c2_chart_data_browse_helper 000000018000b230 f   c2_dsogi_pll_3ph.obj
 0001:0000a69c       $LN15                      000000018000b69c     c2_dsogi_pll_3ph.obj
 0001:0000a6d0       init_dsm_address_info      000000018000b6d0 f   c2_dsogi_pll_3ph.obj
 0001:0000a6e0       init_simulink_io_address   000000018000b6e0 f   c2_dsogi_pll_3ph.obj
 0001:0000aa40       sf_get_sim_state_info_c2_dsogi_pll_3ph 000000018000ba40 f   c2_dsogi_pll_3ph.obj
 0001:0000ab00       sf_opaque_initialize_c2_dsogi_pll_3ph 000000018000bb00 f   c2_dsogi_pll_3ph.obj
 0001:0000ab30       sf_opaque_enable_c2_dsogi_pll_3ph 000000018000bb30 f   c2_dsogi_pll_3ph.obj
 0001:0000ab50       sf_opaque_disable_c2_dsogi_pll_3ph 000000018000bb50 f   c2_dsogi_pll_3ph.obj
 0001:0000ab70       sf_opaque_gateway_c2_dsogi_pll_3ph 000000018000bb70 f   c2_dsogi_pll_3ph.obj
 0001:0000ab90       sf_opaque_get_sim_state_c2_dsogi_pll_3ph 000000018000bb90 f   c2_dsogi_pll_3ph.obj
 0001:0000abc0       sf_opaque_set_sim_state_c2_dsogi_pll_3ph 000000018000bbc0 f   c2_dsogi_pll_3ph.obj
 0001:0000abf0       sf_opaque_cleanup_runtime_resources_c2_dsogi_pll_3ph 000000018000bbf0 f   c2_dsogi_pll_3ph.obj
 0001:0000ac90       sf_opaque_mdl_start_c2_dsogi_pll_3ph 000000018000bc90 f   c2_dsogi_pll_3ph.obj
 0001:0000acd0       sf_opaque_mdl_terminate_c2_dsogi_pll_3ph 000000018000bcd0 f   c2_dsogi_pll_3ph.obj
 0001:0000acf0       mdlProcessParameters_c2_dsogi_pll_3ph 000000018000bcf0 f   c2_dsogi_pll_3ph.obj
 0001:0000afa0       mdlSetWorkWidths_c2_dsogi_pll_3ph 000000018000bfa0 f   c2_dsogi_pll_3ph.obj
 0001:0000b030       mdlRTW_c2_dsogi_pll_3ph    000000018000c030 f   c2_dsogi_pll_3ph.obj
 0001:0000b070       mdlSetupRuntimeResources_c2_dsogi_pll_3ph 000000018000c070 f   c2_dsogi_pll_3ph.obj
 0001:0000b4a0       initialize_c10_dsogi_pll_3ph 000000018000c4a0 f   c10_dsogi_pll_3ph.obj
 0001:0000b530       initialize_params_c10_dsogi_pll_3ph 000000018000c530 f   c10_dsogi_pll_3ph.obj
 0001:0000b540       mdl_start_c10_dsogi_pll_3ph 000000018000c540 f   c10_dsogi_pll_3ph.obj
 0001:0000b570       mdl_terminate_c10_dsogi_pll_3ph 000000018000c570 f   c10_dsogi_pll_3ph.obj
 0001:0000ba50       mdl_setup_runtime_resources_c10_dsogi_pll_3ph 000000018000ca50 f   c10_dsogi_pll_3ph.obj
 0001:0000bcb0       mdl_cleanup_runtime_resources_c10_dsogi_pll_3ph 000000018000ccb0 f   c10_dsogi_pll_3ph.obj
 0001:0000bcf0       enable_c10_dsogi_pll_3ph   000000018000ccf0 f   c10_dsogi_pll_3ph.obj
 0001:0000bd20       disable_c10_dsogi_pll_3ph  000000018000cd20 f   c10_dsogi_pll_3ph.obj
 0001:0000bd50       sf_gateway_c10_dsogi_pll_3ph 000000018000cd50 f   c10_dsogi_pll_3ph.obj
 0001:0000c360       c10_do_animation_call_c10_dsogi_pll_3ph 000000018000d360 f   c10_dsogi_pll_3ph.obj
 0001:0000c3a0       get_sim_state_c10_dsogi_pll_3ph 000000018000d3a0 f   c10_dsogi_pll_3ph.obj
 0001:0000c570       set_sim_state_c10_dsogi_pll_3ph 000000018000d570 f   c10_dsogi_pll_3ph.obj
 0001:0000c670       initSubchartIOPointersc10_dsogi_pll_3ph 000000018000d670 f   c10_dsogi_pll_3ph.obj
 0001:0000c680       c10_emlrt_update_log_1     000000018000d680 f   c10_dsogi_pll_3ph.obj
 0001:0000c960       c10_emlrtInitVarDataTables 000000018000d960 f   c10_dsogi_pll_3ph.obj
 0001:0000cb40       c10_emlrt_marshallIn       000000018000db40 f   c10_dsogi_pll_3ph.obj
 0001:0000cbb0       c10_b_emlrt_marshallIn     000000018000dbb0 f   c10_dsogi_pll_3ph.obj
 0001:0000cc40       c10_c_emlrt_marshallIn     000000018000dc40 f   c10_dsogi_pll_3ph.obj
 0001:0000ccb0       c10_d_emlrt_marshallIn     000000018000dcb0 f   c10_dsogi_pll_3ph.obj
 0001:0000cd40       c10_chart_data_browse_helper 000000018000dd40 f   c10_dsogi_pll_3ph.obj
 0001:0000cfc0       init_dsm_address_info      000000018000dfc0 f   c10_dsogi_pll_3ph.obj
 0001:0000cfd0       init_simulink_io_address   000000018000dfd0 f   c10_dsogi_pll_3ph.obj
 0001:0000d2a0       sf_get_sim_state_info_c10_dsogi_pll_3ph 000000018000e2a0 f   c10_dsogi_pll_3ph.obj
 0001:0000d360       sf_opaque_initialize_c10_dsogi_pll_3ph 000000018000e360 f   c10_dsogi_pll_3ph.obj
 0001:0000d390       sf_opaque_enable_c10_dsogi_pll_3ph 000000018000e390 f   c10_dsogi_pll_3ph.obj
 0001:0000d3b0       sf_opaque_disable_c10_dsogi_pll_3ph 000000018000e3b0 f   c10_dsogi_pll_3ph.obj
 0001:0000d3d0       sf_opaque_gateway_c10_dsogi_pll_3ph 000000018000e3d0 f   c10_dsogi_pll_3ph.obj
 0001:0000d3f0       sf_opaque_get_sim_state_c10_dsogi_pll_3ph 000000018000e3f0 f   c10_dsogi_pll_3ph.obj
 0001:0000d420       sf_opaque_set_sim_state_c10_dsogi_pll_3ph 000000018000e420 f   c10_dsogi_pll_3ph.obj
 0001:0000d450       sf_opaque_cleanup_runtime_resources_c10_dsogi_pll_3ph 000000018000e450 f   c10_dsogi_pll_3ph.obj
 0001:0000d4f0       sf_opaque_mdl_start_c10_dsogi_pll_3ph 000000018000e4f0 f   c10_dsogi_pll_3ph.obj
 0001:0000d530       sf_opaque_mdl_terminate_c10_dsogi_pll_3ph 000000018000e530 f   c10_dsogi_pll_3ph.obj
 0001:0000d550       mdlProcessParameters_c10_dsogi_pll_3ph 000000018000e550 f   c10_dsogi_pll_3ph.obj
 0001:0000d800       mdlSetWorkWidths_c10_dsogi_pll_3ph 000000018000e800 f   c10_dsogi_pll_3ph.obj
 0001:0000d890       mdlRTW_c10_dsogi_pll_3ph   000000018000e890 f   c10_dsogi_pll_3ph.obj
 0001:0000d8d0       mdlSetupRuntimeResources_c10_dsogi_pll_3ph 000000018000e8d0 f   c10_dsogi_pll_3ph.obj
 0001:0000dd00       initialize_c17_dsogi_pll_3ph 000000018000ed00 f   c17_dsogi_pll_3ph.obj
 0001:0000dd90       initialize_params_c17_dsogi_pll_3ph 000000018000ed90 f   c17_dsogi_pll_3ph.obj
 0001:0000dda0       mdl_start_c17_dsogi_pll_3ph 000000018000eda0 f   c17_dsogi_pll_3ph.obj
 0001:0000ddd0       mdl_terminate_c17_dsogi_pll_3ph 000000018000edd0 f   c17_dsogi_pll_3ph.obj
 0001:0000e050       mdl_setup_runtime_resources_c17_dsogi_pll_3ph 000000018000f050 f   c17_dsogi_pll_3ph.obj
 0001:0000e2b0       mdl_cleanup_runtime_resources_c17_dsogi_pll_3ph 000000018000f2b0 f   c17_dsogi_pll_3ph.obj
 0001:0000e2f0       enable_c17_dsogi_pll_3ph   000000018000f2f0 f   c17_dsogi_pll_3ph.obj
 0001:0000e320       disable_c17_dsogi_pll_3ph  000000018000f320 f   c17_dsogi_pll_3ph.obj
 0001:0000e350       sf_gateway_c17_dsogi_pll_3ph 000000018000f350 f   c17_dsogi_pll_3ph.obj
 0001:0000e540       c17_do_animation_call_c17_dsogi_pll_3ph 000000018000f540 f   c17_dsogi_pll_3ph.obj
 0001:0000e580       get_sim_state_c17_dsogi_pll_3ph 000000018000f580 f   c17_dsogi_pll_3ph.obj
 0001:0000e6d0       set_sim_state_c17_dsogi_pll_3ph 000000018000f6d0 f   c17_dsogi_pll_3ph.obj
 0001:0000e790       initSubchartIOPointersc17_dsogi_pll_3ph 000000018000f790 f   c17_dsogi_pll_3ph.obj
 0001:0000e7a0       c17_emlrt_update_log_1     000000018000f7a0 f   c17_dsogi_pll_3ph.obj
 0001:0000ea80       c17_emlrtInitVarDataTables 000000018000fa80 f   c17_dsogi_pll_3ph.obj
 0001:0000ec60       c17_emlrt_marshallIn       000000018000fc60 f   c17_dsogi_pll_3ph.obj
 0001:0000ecd0       c17_b_emlrt_marshallIn     000000018000fcd0 f   c17_dsogi_pll_3ph.obj
 0001:0000ed60       c17_c_emlrt_marshallIn     000000018000fd60 f   c17_dsogi_pll_3ph.obj
 0001:0000edd0       c17_d_emlrt_marshallIn     000000018000fdd0 f   c17_dsogi_pll_3ph.obj
 0001:0000ee60       c17_chart_data_browse_helper 000000018000fe60 f   c17_dsogi_pll_3ph.obj
 0001:0000eff0       init_dsm_address_info      000000018000fff0 f   c17_dsogi_pll_3ph.obj
 0001:0000f000       init_simulink_io_address   0000000180010000 f   c17_dsogi_pll_3ph.obj
 0001:0000f290       sf_get_sim_state_info_c17_dsogi_pll_3ph 0000000180010290 f   c17_dsogi_pll_3ph.obj
 0001:0000f350       sf_opaque_initialize_c17_dsogi_pll_3ph 0000000180010350 f   c17_dsogi_pll_3ph.obj
 0001:0000f380       sf_opaque_enable_c17_dsogi_pll_3ph 0000000180010380 f   c17_dsogi_pll_3ph.obj
 0001:0000f3a0       sf_opaque_disable_c17_dsogi_pll_3ph 00000001800103a0 f   c17_dsogi_pll_3ph.obj
 0001:0000f3c0       sf_opaque_gateway_c17_dsogi_pll_3ph 00000001800103c0 f   c17_dsogi_pll_3ph.obj
 0001:0000f3e0       sf_opaque_get_sim_state_c17_dsogi_pll_3ph 00000001800103e0 f   c17_dsogi_pll_3ph.obj
 0001:0000f410       sf_opaque_set_sim_state_c17_dsogi_pll_3ph 0000000180010410 f   c17_dsogi_pll_3ph.obj
 0001:0000f440       sf_opaque_cleanup_runtime_resources_c17_dsogi_pll_3ph 0000000180010440 f   c17_dsogi_pll_3ph.obj
 0001:0000f4e0       sf_opaque_mdl_start_c17_dsogi_pll_3ph 00000001800104e0 f   c17_dsogi_pll_3ph.obj
 0001:0000f520       sf_opaque_mdl_terminate_c17_dsogi_pll_3ph 0000000180010520 f   c17_dsogi_pll_3ph.obj
 0001:0000f540       mdlProcessParameters_c17_dsogi_pll_3ph 0000000180010540 f   c17_dsogi_pll_3ph.obj
 0001:0000f7f0       mdlSetWorkWidths_c17_dsogi_pll_3ph 00000001800107f0 f   c17_dsogi_pll_3ph.obj
 0001:0000f880       mdlRTW_c17_dsogi_pll_3ph   0000000180010880 f   c17_dsogi_pll_3ph.obj
 0001:0000f8c0       mdlSetupRuntimeResources_c17_dsogi_pll_3ph 00000001800108c0 f   c17_dsogi_pll_3ph.obj
 0001:0000fcf0       initialize_c18_dsogi_pll_3ph 0000000180010cf0 f   c18_dsogi_pll_3ph.obj
 0001:0000fd80       initialize_params_c18_dsogi_pll_3ph 0000000180010d80 f   c18_dsogi_pll_3ph.obj
 0001:0000fd90       mdl_start_c18_dsogi_pll_3ph 0000000180010d90 f   c18_dsogi_pll_3ph.obj
 0001:0000fdc0       mdl_terminate_c18_dsogi_pll_3ph 0000000180010dc0 f   c18_dsogi_pll_3ph.obj
 0001:00010040       mdl_setup_runtime_resources_c18_dsogi_pll_3ph 0000000180011040 f   c18_dsogi_pll_3ph.obj
 0001:000102a0       mdl_cleanup_runtime_resources_c18_dsogi_pll_3ph 00000001800112a0 f   c18_dsogi_pll_3ph.obj
 0001:000102e0       enable_c18_dsogi_pll_3ph   00000001800112e0 f   c18_dsogi_pll_3ph.obj
 0001:00010310       disable_c18_dsogi_pll_3ph  0000000180011310 f   c18_dsogi_pll_3ph.obj
 0001:00010340       sf_gateway_c18_dsogi_pll_3ph 0000000180011340 f   c18_dsogi_pll_3ph.obj
 0001:00010530       c18_do_animation_call_c18_dsogi_pll_3ph 0000000180011530 f   c18_dsogi_pll_3ph.obj
 0001:00010570       get_sim_state_c18_dsogi_pll_3ph 0000000180011570 f   c18_dsogi_pll_3ph.obj
 0001:000106c0       set_sim_state_c18_dsogi_pll_3ph 00000001800116c0 f   c18_dsogi_pll_3ph.obj
 0001:00010780       initSubchartIOPointersc18_dsogi_pll_3ph 0000000180011780 f   c18_dsogi_pll_3ph.obj
 0001:00010790       c18_emlrt_update_log_1     0000000180011790 f   c18_dsogi_pll_3ph.obj
 0001:00010a70       c18_emlrtInitVarDataTables 0000000180011a70 f   c18_dsogi_pll_3ph.obj
 0001:00010c50       c18_emlrt_marshallIn       0000000180011c50 f   c18_dsogi_pll_3ph.obj
 0001:00010cc0       c18_b_emlrt_marshallIn     0000000180011cc0 f   c18_dsogi_pll_3ph.obj
 0001:00010d50       c18_c_emlrt_marshallIn     0000000180011d50 f   c18_dsogi_pll_3ph.obj
 0001:00010dc0       c18_d_emlrt_marshallIn     0000000180011dc0 f   c18_dsogi_pll_3ph.obj
 0001:00010e50       c18_chart_data_browse_helper 0000000180011e50 f   c18_dsogi_pll_3ph.obj
 0001:00010fe0       init_dsm_address_info      0000000180011fe0 f   c18_dsogi_pll_3ph.obj
 0001:00010ff0       init_simulink_io_address   0000000180011ff0 f   c18_dsogi_pll_3ph.obj
 0001:00011280       sf_get_sim_state_info_c18_dsogi_pll_3ph 0000000180012280 f   c18_dsogi_pll_3ph.obj
 0001:00011340       sf_opaque_initialize_c18_dsogi_pll_3ph 0000000180012340 f   c18_dsogi_pll_3ph.obj
 0001:00011370       sf_opaque_enable_c18_dsogi_pll_3ph 0000000180012370 f   c18_dsogi_pll_3ph.obj
 0001:00011390       sf_opaque_disable_c18_dsogi_pll_3ph 0000000180012390 f   c18_dsogi_pll_3ph.obj
 0001:000113b0       sf_opaque_gateway_c18_dsogi_pll_3ph 00000001800123b0 f   c18_dsogi_pll_3ph.obj
 0001:000113d0       sf_opaque_get_sim_state_c18_dsogi_pll_3ph 00000001800123d0 f   c18_dsogi_pll_3ph.obj
 0001:00011400       sf_opaque_set_sim_state_c18_dsogi_pll_3ph 0000000180012400 f   c18_dsogi_pll_3ph.obj
 0001:00011430       sf_opaque_cleanup_runtime_resources_c18_dsogi_pll_3ph 0000000180012430 f   c18_dsogi_pll_3ph.obj
 0001:000114d0       sf_opaque_mdl_start_c18_dsogi_pll_3ph 00000001800124d0 f   c18_dsogi_pll_3ph.obj
 0001:00011510       sf_opaque_mdl_terminate_c18_dsogi_pll_3ph 0000000180012510 f   c18_dsogi_pll_3ph.obj
 0001:00011530       mdlProcessParameters_c18_dsogi_pll_3ph 0000000180012530 f   c18_dsogi_pll_3ph.obj
 0001:000117e0       mdlSetWorkWidths_c18_dsogi_pll_3ph 00000001800127e0 f   c18_dsogi_pll_3ph.obj
 0001:00011870       mdlRTW_c18_dsogi_pll_3ph   0000000180012870 f   c18_dsogi_pll_3ph.obj
 0001:000118b0       mdlSetupRuntimeResources_c18_dsogi_pll_3ph 00000001800128b0 f   c18_dsogi_pll_3ph.obj
 0001:00011ce0       initialize_c19_dsogi_pll_3ph 0000000180012ce0 f   c19_dsogi_pll_3ph.obj
 0001:00011d70       initialize_params_c19_dsogi_pll_3ph 0000000180012d70 f   c19_dsogi_pll_3ph.obj
 0001:00011d80       mdl_start_c19_dsogi_pll_3ph 0000000180012d80 f   c19_dsogi_pll_3ph.obj
 0001:00011db0       mdl_terminate_c19_dsogi_pll_3ph 0000000180012db0 f   c19_dsogi_pll_3ph.obj
 0001:00012030       mdl_setup_runtime_resources_c19_dsogi_pll_3ph 0000000180013030 f   c19_dsogi_pll_3ph.obj
 0001:00012290       mdl_cleanup_runtime_resources_c19_dsogi_pll_3ph 0000000180013290 f   c19_dsogi_pll_3ph.obj
 0001:000122d0       enable_c19_dsogi_pll_3ph   00000001800132d0 f   c19_dsogi_pll_3ph.obj
 0001:00012300       disable_c19_dsogi_pll_3ph  0000000180013300 f   c19_dsogi_pll_3ph.obj
 0001:00012330       sf_gateway_c19_dsogi_pll_3ph 0000000180013330 f   c19_dsogi_pll_3ph.obj
 0001:00012520       c19_do_animation_call_c19_dsogi_pll_3ph 0000000180013520 f   c19_dsogi_pll_3ph.obj
 0001:00012560       get_sim_state_c19_dsogi_pll_3ph 0000000180013560 f   c19_dsogi_pll_3ph.obj
 0001:000126b0       set_sim_state_c19_dsogi_pll_3ph 00000001800136b0 f   c19_dsogi_pll_3ph.obj
 0001:00012770       initSubchartIOPointersc19_dsogi_pll_3ph 0000000180013770 f   c19_dsogi_pll_3ph.obj
 0001:00012780       c19_emlrt_update_log_1     0000000180013780 f   c19_dsogi_pll_3ph.obj
 0001:00012a60       c19_emlrtInitVarDataTables 0000000180013a60 f   c19_dsogi_pll_3ph.obj
 0001:00012c40       c19_emlrt_marshallIn       0000000180013c40 f   c19_dsogi_pll_3ph.obj
 0001:00012cb0       c19_b_emlrt_marshallIn     0000000180013cb0 f   c19_dsogi_pll_3ph.obj
 0001:00012d40       c19_c_emlrt_marshallIn     0000000180013d40 f   c19_dsogi_pll_3ph.obj
 0001:00012db0       c19_d_emlrt_marshallIn     0000000180013db0 f   c19_dsogi_pll_3ph.obj
 0001:00012e40       c19_chart_data_browse_helper 0000000180013e40 f   c19_dsogi_pll_3ph.obj
 0001:00012fd0       init_dsm_address_info      0000000180013fd0 f   c19_dsogi_pll_3ph.obj
 0001:00012fe0       init_simulink_io_address   0000000180013fe0 f   c19_dsogi_pll_3ph.obj
 0001:00013270       sf_get_sim_state_info_c19_dsogi_pll_3ph 0000000180014270 f   c19_dsogi_pll_3ph.obj
 0001:00013330       sf_opaque_initialize_c19_dsogi_pll_3ph 0000000180014330 f   c19_dsogi_pll_3ph.obj
 0001:00013360       sf_opaque_enable_c19_dsogi_pll_3ph 0000000180014360 f   c19_dsogi_pll_3ph.obj
 0001:00013380       sf_opaque_disable_c19_dsogi_pll_3ph 0000000180014380 f   c19_dsogi_pll_3ph.obj
 0001:000133a0       sf_opaque_gateway_c19_dsogi_pll_3ph 00000001800143a0 f   c19_dsogi_pll_3ph.obj
 0001:000133c0       sf_opaque_get_sim_state_c19_dsogi_pll_3ph 00000001800143c0 f   c19_dsogi_pll_3ph.obj
 0001:000133f0       sf_opaque_set_sim_state_c19_dsogi_pll_3ph 00000001800143f0 f   c19_dsogi_pll_3ph.obj
 0001:00013420       sf_opaque_cleanup_runtime_resources_c19_dsogi_pll_3ph 0000000180014420 f   c19_dsogi_pll_3ph.obj
 0001:000134c0       sf_opaque_mdl_start_c19_dsogi_pll_3ph 00000001800144c0 f   c19_dsogi_pll_3ph.obj
 0001:00013500       sf_opaque_mdl_terminate_c19_dsogi_pll_3ph 0000000180014500 f   c19_dsogi_pll_3ph.obj
 0001:00013520       mdlProcessParameters_c19_dsogi_pll_3ph 0000000180014520 f   c19_dsogi_pll_3ph.obj
 0001:000137d0       mdlSetWorkWidths_c19_dsogi_pll_3ph 00000001800147d0 f   c19_dsogi_pll_3ph.obj
 0001:00013860       mdlRTW_c19_dsogi_pll_3ph   0000000180014860 f   c19_dsogi_pll_3ph.obj
 0001:000138a0       mdlSetupRuntimeResources_c19_dsogi_pll_3ph 00000001800148a0 f   c19_dsogi_pll_3ph.obj
 0001:00013cd0       initialize_c20_dsogi_pll_3ph 0000000180014cd0 f   c20_dsogi_pll_3ph.obj
 0001:00013d60       initialize_params_c20_dsogi_pll_3ph 0000000180014d60 f   c20_dsogi_pll_3ph.obj
 0001:00013d70       mdl_start_c20_dsogi_pll_3ph 0000000180014d70 f   c20_dsogi_pll_3ph.obj
 0001:00013da0       mdl_terminate_c20_dsogi_pll_3ph 0000000180014da0 f   c20_dsogi_pll_3ph.obj
 0001:00014020       mdl_setup_runtime_resources_c20_dsogi_pll_3ph 0000000180015020 f   c20_dsogi_pll_3ph.obj
 0001:00014280       mdl_cleanup_runtime_resources_c20_dsogi_pll_3ph 0000000180015280 f   c20_dsogi_pll_3ph.obj
 0001:000142c0       enable_c20_dsogi_pll_3ph   00000001800152c0 f   c20_dsogi_pll_3ph.obj
 0001:000142f0       disable_c20_dsogi_pll_3ph  00000001800152f0 f   c20_dsogi_pll_3ph.obj
 0001:00014320       sf_gateway_c20_dsogi_pll_3ph 0000000180015320 f   c20_dsogi_pll_3ph.obj
 0001:00014510       c20_do_animation_call_c20_dsogi_pll_3ph 0000000180015510 f   c20_dsogi_pll_3ph.obj
 0001:00014550       get_sim_state_c20_dsogi_pll_3ph 0000000180015550 f   c20_dsogi_pll_3ph.obj
 0001:000146a0       set_sim_state_c20_dsogi_pll_3ph 00000001800156a0 f   c20_dsogi_pll_3ph.obj
 0001:00014760       initSubchartIOPointersc20_dsogi_pll_3ph 0000000180015760 f   c20_dsogi_pll_3ph.obj
 0001:00014770       c20_emlrt_update_log_1     0000000180015770 f   c20_dsogi_pll_3ph.obj
 0001:00014a50       c20_emlrtInitVarDataTables 0000000180015a50 f   c20_dsogi_pll_3ph.obj
 0001:00014c30       c20_emlrt_marshallIn       0000000180015c30 f   c20_dsogi_pll_3ph.obj
 0001:00014ca0       c20_b_emlrt_marshallIn     0000000180015ca0 f   c20_dsogi_pll_3ph.obj
 0001:00014d30       c20_c_emlrt_marshallIn     0000000180015d30 f   c20_dsogi_pll_3ph.obj
 0001:00014da0       c20_d_emlrt_marshallIn     0000000180015da0 f   c20_dsogi_pll_3ph.obj
 0001:00014e30       c20_chart_data_browse_helper 0000000180015e30 f   c20_dsogi_pll_3ph.obj
 0001:00014fc0       init_dsm_address_info      0000000180015fc0 f   c20_dsogi_pll_3ph.obj
 0001:00014fd0       init_simulink_io_address   0000000180015fd0 f   c20_dsogi_pll_3ph.obj
 0001:00015260       sf_get_sim_state_info_c20_dsogi_pll_3ph 0000000180016260 f   c20_dsogi_pll_3ph.obj
 0001:00015320       sf_opaque_initialize_c20_dsogi_pll_3ph 0000000180016320 f   c20_dsogi_pll_3ph.obj
 0001:00015350       sf_opaque_enable_c20_dsogi_pll_3ph 0000000180016350 f   c20_dsogi_pll_3ph.obj
 0001:00015370       sf_opaque_disable_c20_dsogi_pll_3ph 0000000180016370 f   c20_dsogi_pll_3ph.obj
 0001:00015390       sf_opaque_gateway_c20_dsogi_pll_3ph 0000000180016390 f   c20_dsogi_pll_3ph.obj
 0001:000153b0       sf_opaque_get_sim_state_c20_dsogi_pll_3ph 00000001800163b0 f   c20_dsogi_pll_3ph.obj
 0001:000153e0       sf_opaque_set_sim_state_c20_dsogi_pll_3ph 00000001800163e0 f   c20_dsogi_pll_3ph.obj
 0001:00015410       sf_opaque_cleanup_runtime_resources_c20_dsogi_pll_3ph 0000000180016410 f   c20_dsogi_pll_3ph.obj
 0001:000154b0       sf_opaque_mdl_start_c20_dsogi_pll_3ph 00000001800164b0 f   c20_dsogi_pll_3ph.obj
 0001:000154f0       sf_opaque_mdl_terminate_c20_dsogi_pll_3ph 00000001800164f0 f   c20_dsogi_pll_3ph.obj
 0001:00015510       mdlProcessParameters_c20_dsogi_pll_3ph 0000000180016510 f   c20_dsogi_pll_3ph.obj
 0001:000157c0       mdlSetWorkWidths_c20_dsogi_pll_3ph 00000001800167c0 f   c20_dsogi_pll_3ph.obj
 0001:00015850       mdlRTW_c20_dsogi_pll_3ph   0000000180016850 f   c20_dsogi_pll_3ph.obj
 0001:00015890       mdlSetupRuntimeResources_c20_dsogi_pll_3ph 0000000180016890 f   c20_dsogi_pll_3ph.obj
 0001:00015cc0       initialize_c21_dsogi_pll_3ph 0000000180016cc0 f   c21_dsogi_pll_3ph.obj
 0001:00015d50       initialize_params_c21_dsogi_pll_3ph 0000000180016d50 f   c21_dsogi_pll_3ph.obj
 0001:00015d60       mdl_start_c21_dsogi_pll_3ph 0000000180016d60 f   c21_dsogi_pll_3ph.obj
 0001:00015d90       mdl_terminate_c21_dsogi_pll_3ph 0000000180016d90 f   c21_dsogi_pll_3ph.obj
 0001:00015fd0       mdl_setup_runtime_resources_c21_dsogi_pll_3ph 0000000180016fd0 f   c21_dsogi_pll_3ph.obj
 0001:00016230       mdl_cleanup_runtime_resources_c21_dsogi_pll_3ph 0000000180017230 f   c21_dsogi_pll_3ph.obj
 0001:00016270       enable_c21_dsogi_pll_3ph   0000000180017270 f   c21_dsogi_pll_3ph.obj
 0001:000162a0       disable_c21_dsogi_pll_3ph  00000001800172a0 f   c21_dsogi_pll_3ph.obj
 0001:000162d0       sf_gateway_c21_dsogi_pll_3ph 00000001800172d0 f   c21_dsogi_pll_3ph.obj
 0001:00016480       c21_do_animation_call_c21_dsogi_pll_3ph 0000000180017480 f   c21_dsogi_pll_3ph.obj
 0001:000164c0       get_sim_state_c21_dsogi_pll_3ph 00000001800174c0 f   c21_dsogi_pll_3ph.obj
 0001:00016610       set_sim_state_c21_dsogi_pll_3ph 0000000180017610 f   c21_dsogi_pll_3ph.obj
 0001:000166d0       initSubchartIOPointersc21_dsogi_pll_3ph 00000001800176d0 f   c21_dsogi_pll_3ph.obj
 0001:000166e0       c21_emlrt_update_log_1     00000001800176e0 f   c21_dsogi_pll_3ph.obj
 0001:000169c0       c21_emlrtInitVarDataTables 00000001800179c0 f   c21_dsogi_pll_3ph.obj
 0001:00016ba0       c21_emlrt_marshallIn       0000000180017ba0 f   c21_dsogi_pll_3ph.obj
 0001:00016c10       c21_b_emlrt_marshallIn     0000000180017c10 f   c21_dsogi_pll_3ph.obj
 0001:00016ca0       c21_c_emlrt_marshallIn     0000000180017ca0 f   c21_dsogi_pll_3ph.obj
 0001:00016d10       c21_d_emlrt_marshallIn     0000000180017d10 f   c21_dsogi_pll_3ph.obj
 0001:00016da0       c21_chart_data_browse_helper 0000000180017da0 f   c21_dsogi_pll_3ph.obj
 0001:00016f30       init_dsm_address_info      0000000180017f30 f   c21_dsogi_pll_3ph.obj
 0001:00016f40       init_simulink_io_address   0000000180017f40 f   c21_dsogi_pll_3ph.obj
 0001:000171d0       sf_get_sim_state_info_c21_dsogi_pll_3ph 00000001800181d0 f   c21_dsogi_pll_3ph.obj
 0001:00017290       sf_opaque_initialize_c21_dsogi_pll_3ph 0000000180018290 f   c21_dsogi_pll_3ph.obj
 0001:000172c0       sf_opaque_enable_c21_dsogi_pll_3ph 00000001800182c0 f   c21_dsogi_pll_3ph.obj
 0001:000172e0       sf_opaque_disable_c21_dsogi_pll_3ph 00000001800182e0 f   c21_dsogi_pll_3ph.obj
 0001:00017300       sf_opaque_gateway_c21_dsogi_pll_3ph 0000000180018300 f   c21_dsogi_pll_3ph.obj
 0001:00017320       sf_opaque_get_sim_state_c21_dsogi_pll_3ph 0000000180018320 f   c21_dsogi_pll_3ph.obj
 0001:00017350       sf_opaque_set_sim_state_c21_dsogi_pll_3ph 0000000180018350 f   c21_dsogi_pll_3ph.obj
 0001:00017380       sf_opaque_cleanup_runtime_resources_c21_dsogi_pll_3ph 0000000180018380 f   c21_dsogi_pll_3ph.obj
 0001:00017420       sf_opaque_mdl_start_c21_dsogi_pll_3ph 0000000180018420 f   c21_dsogi_pll_3ph.obj
 0001:00017460       sf_opaque_mdl_terminate_c21_dsogi_pll_3ph 0000000180018460 f   c21_dsogi_pll_3ph.obj
 0001:00017480       mdlProcessParameters_c21_dsogi_pll_3ph 0000000180018480 f   c21_dsogi_pll_3ph.obj
 0001:00017730       mdlSetWorkWidths_c21_dsogi_pll_3ph 0000000180018730 f   c21_dsogi_pll_3ph.obj
 0001:000177c0       mdlRTW_c21_dsogi_pll_3ph   00000001800187c0 f   c21_dsogi_pll_3ph.obj
 0001:00017800       mdlSetupRuntimeResources_c21_dsogi_pll_3ph 0000000180018800 f   c21_dsogi_pll_3ph.obj
 0001:00017c30       initialize_c22_dsogi_pll_3ph 0000000180018c30 f   c22_dsogi_pll_3ph.obj
 0001:00017cc0       initialize_params_c22_dsogi_pll_3ph 0000000180018cc0 f   c22_dsogi_pll_3ph.obj
 0001:00017cd0       mdl_start_c22_dsogi_pll_3ph 0000000180018cd0 f   c22_dsogi_pll_3ph.obj
 0001:00017d00       mdl_terminate_c22_dsogi_pll_3ph 0000000180018d00 f   c22_dsogi_pll_3ph.obj
 0001:00017f40       mdl_setup_runtime_resources_c22_dsogi_pll_3ph 0000000180018f40 f   c22_dsogi_pll_3ph.obj
 0001:000181a0       mdl_cleanup_runtime_resources_c22_dsogi_pll_3ph 00000001800191a0 f   c22_dsogi_pll_3ph.obj
 0001:000181e0       enable_c22_dsogi_pll_3ph   00000001800191e0 f   c22_dsogi_pll_3ph.obj
 0001:00018210       disable_c22_dsogi_pll_3ph  0000000180019210 f   c22_dsogi_pll_3ph.obj
 0001:00018240       sf_gateway_c22_dsogi_pll_3ph 0000000180019240 f   c22_dsogi_pll_3ph.obj
 0001:000183f0       c22_do_animation_call_c22_dsogi_pll_3ph 00000001800193f0 f   c22_dsogi_pll_3ph.obj
 0001:00018430       get_sim_state_c22_dsogi_pll_3ph 0000000180019430 f   c22_dsogi_pll_3ph.obj
 0001:00018580       set_sim_state_c22_dsogi_pll_3ph 0000000180019580 f   c22_dsogi_pll_3ph.obj
 0001:00018640       initSubchartIOPointersc22_dsogi_pll_3ph 0000000180019640 f   c22_dsogi_pll_3ph.obj
 0001:00018650       c22_emlrt_update_log_1     0000000180019650 f   c22_dsogi_pll_3ph.obj
 0001:00018930       c22_emlrtInitVarDataTables 0000000180019930 f   c22_dsogi_pll_3ph.obj
 0001:00018b10       c22_emlrt_marshallIn       0000000180019b10 f   c22_dsogi_pll_3ph.obj
 0001:00018b80       c22_b_emlrt_marshallIn     0000000180019b80 f   c22_dsogi_pll_3ph.obj
 0001:00018c10       c22_c_emlrt_marshallIn     0000000180019c10 f   c22_dsogi_pll_3ph.obj
 0001:00018c80       c22_d_emlrt_marshallIn     0000000180019c80 f   c22_dsogi_pll_3ph.obj
 0001:00018d10       c22_chart_data_browse_helper 0000000180019d10 f   c22_dsogi_pll_3ph.obj
 0001:00018ea0       init_dsm_address_info      0000000180019ea0 f   c22_dsogi_pll_3ph.obj
 0001:00018eb0       init_simulink_io_address   0000000180019eb0 f   c22_dsogi_pll_3ph.obj
 0001:00019140       sf_get_sim_state_info_c22_dsogi_pll_3ph 000000018001a140 f   c22_dsogi_pll_3ph.obj
 0001:00019200       sf_opaque_initialize_c22_dsogi_pll_3ph 000000018001a200 f   c22_dsogi_pll_3ph.obj
 0001:00019230       sf_opaque_enable_c22_dsogi_pll_3ph 000000018001a230 f   c22_dsogi_pll_3ph.obj
 0001:00019250       sf_opaque_disable_c22_dsogi_pll_3ph 000000018001a250 f   c22_dsogi_pll_3ph.obj
 0001:00019270       sf_opaque_gateway_c22_dsogi_pll_3ph 000000018001a270 f   c22_dsogi_pll_3ph.obj
 0001:00019290       sf_opaque_get_sim_state_c22_dsogi_pll_3ph 000000018001a290 f   c22_dsogi_pll_3ph.obj
 0001:000192c0       sf_opaque_set_sim_state_c22_dsogi_pll_3ph 000000018001a2c0 f   c22_dsogi_pll_3ph.obj
 0001:000192f0       sf_opaque_cleanup_runtime_resources_c22_dsogi_pll_3ph 000000018001a2f0 f   c22_dsogi_pll_3ph.obj
 0001:00019390       sf_opaque_mdl_start_c22_dsogi_pll_3ph 000000018001a390 f   c22_dsogi_pll_3ph.obj
 0001:000193d0       sf_opaque_mdl_terminate_c22_dsogi_pll_3ph 000000018001a3d0 f   c22_dsogi_pll_3ph.obj
 0001:000193f0       mdlProcessParameters_c22_dsogi_pll_3ph 000000018001a3f0 f   c22_dsogi_pll_3ph.obj
 0001:000196a0       mdlSetWorkWidths_c22_dsogi_pll_3ph 000000018001a6a0 f   c22_dsogi_pll_3ph.obj
 0001:00019730       mdlRTW_c22_dsogi_pll_3ph   000000018001a730 f   c22_dsogi_pll_3ph.obj
 0001:00019770       mdlSetupRuntimeResources_c22_dsogi_pll_3ph 000000018001a770 f   c22_dsogi_pll_3ph.obj
 0001:00019ba0       initialize_c23_dsogi_pll_3ph 000000018001aba0 f   c23_dsogi_pll_3ph.obj
 0001:00019c30       initialize_params_c23_dsogi_pll_3ph 000000018001ac30 f   c23_dsogi_pll_3ph.obj
 0001:00019c40       mdl_start_c23_dsogi_pll_3ph 000000018001ac40 f   c23_dsogi_pll_3ph.obj
 0001:00019c70       mdl_terminate_c23_dsogi_pll_3ph 000000018001ac70 f   c23_dsogi_pll_3ph.obj
 0001:0001a360       mdl_setup_runtime_resources_c23_dsogi_pll_3ph 000000018001b360 f   c23_dsogi_pll_3ph.obj
 0001:0001a6f0       mdl_cleanup_runtime_resources_c23_dsogi_pll_3ph 000000018001b6f0 f   c23_dsogi_pll_3ph.obj
 0001:0001a730       enable_c23_dsogi_pll_3ph   000000018001b730 f   c23_dsogi_pll_3ph.obj
 0001:0001a760       disable_c23_dsogi_pll_3ph  000000018001b760 f   c23_dsogi_pll_3ph.obj
 0001:0001a790       sf_gateway_c23_dsogi_pll_3ph 000000018001b790 f   c23_dsogi_pll_3ph.obj
 0001:0001b360       c23_do_animation_call_c23_dsogi_pll_3ph 000000018001c360 f   c23_dsogi_pll_3ph.obj
 0001:0001b3a0       get_sim_state_c23_dsogi_pll_3ph 000000018001c3a0 f   c23_dsogi_pll_3ph.obj
 0001:0001b5e0       set_sim_state_c23_dsogi_pll_3ph 000000018001c5e0 f   c23_dsogi_pll_3ph.obj
 0001:0001b710       initSubchartIOPointersc23_dsogi_pll_3ph 000000018001c710 f   c23_dsogi_pll_3ph.obj
 0001:0001b720       c23_emlrt_update_log_1     000000018001c720 f   c23_dsogi_pll_3ph.obj
 0001:0001ba00       c23_emlrtInitVarDataTables 000000018001ca00 f   c23_dsogi_pll_3ph.obj
 0001:0001bbe0       c23_emlrt_marshallIn       000000018001cbe0 f   c23_dsogi_pll_3ph.obj
 0001:0001bc50       c23_b_emlrt_marshallIn     000000018001cc50 f   c23_dsogi_pll_3ph.obj
 0001:0001bce0       c23_c_emlrt_marshallIn     000000018001cce0 f   c23_dsogi_pll_3ph.obj
 0001:0001bd50       c23_d_emlrt_marshallIn     000000018001cd50 f   c23_dsogi_pll_3ph.obj
 0001:0001bde0       c23_chart_data_browse_helper 000000018001cde0 f   c23_dsogi_pll_3ph.obj
 0001:0001c114       $LN12                      000000018001d114     c23_dsogi_pll_3ph.obj
 0001:0001c140       init_dsm_address_info      000000018001d140 f   c23_dsogi_pll_3ph.obj
 0001:0001c150       init_simulink_io_address   000000018001d150 f   c23_dsogi_pll_3ph.obj
 0001:0001c460       sf_get_sim_state_info_c23_dsogi_pll_3ph 000000018001d460 f   c23_dsogi_pll_3ph.obj
 0001:0001c520       sf_opaque_initialize_c23_dsogi_pll_3ph 000000018001d520 f   c23_dsogi_pll_3ph.obj
 0001:0001c550       sf_opaque_enable_c23_dsogi_pll_3ph 000000018001d550 f   c23_dsogi_pll_3ph.obj
 0001:0001c570       sf_opaque_disable_c23_dsogi_pll_3ph 000000018001d570 f   c23_dsogi_pll_3ph.obj
 0001:0001c590       sf_opaque_gateway_c23_dsogi_pll_3ph 000000018001d590 f   c23_dsogi_pll_3ph.obj
 0001:0001c5b0       sf_opaque_get_sim_state_c23_dsogi_pll_3ph 000000018001d5b0 f   c23_dsogi_pll_3ph.obj
 0001:0001c5e0       sf_opaque_set_sim_state_c23_dsogi_pll_3ph 000000018001d5e0 f   c23_dsogi_pll_3ph.obj
 0001:0001c610       sf_opaque_cleanup_runtime_resources_c23_dsogi_pll_3ph 000000018001d610 f   c23_dsogi_pll_3ph.obj
 0001:0001c6b0       sf_opaque_mdl_start_c23_dsogi_pll_3ph 000000018001d6b0 f   c23_dsogi_pll_3ph.obj
 0001:0001c6f0       sf_opaque_mdl_terminate_c23_dsogi_pll_3ph 000000018001d6f0 f   c23_dsogi_pll_3ph.obj
 0001:0001c710       mdlProcessParameters_c23_dsogi_pll_3ph 000000018001d710 f   c23_dsogi_pll_3ph.obj
 0001:0001c9d0       mdlSetWorkWidths_c23_dsogi_pll_3ph 000000018001d9d0 f   c23_dsogi_pll_3ph.obj
 0001:0001ca60       mdlRTW_c23_dsogi_pll_3ph   000000018001da60 f   c23_dsogi_pll_3ph.obj
 0001:0001caa0       mdlSetupRuntimeResources_c23_dsogi_pll_3ph 000000018001daa0 f   c23_dsogi_pll_3ph.obj
 0001:0001ced0       initialize_c24_dsogi_pll_3ph 000000018001ded0 f   c24_dsogi_pll_3ph.obj
 0001:0001cf60       initialize_params_c24_dsogi_pll_3ph 000000018001df60 f   c24_dsogi_pll_3ph.obj
 0001:0001cf70       mdl_start_c24_dsogi_pll_3ph 000000018001df70 f   c24_dsogi_pll_3ph.obj
 0001:0001cfa0       mdl_terminate_c24_dsogi_pll_3ph 000000018001dfa0 f   c24_dsogi_pll_3ph.obj
 0001:0001d370       mdl_setup_runtime_resources_c24_dsogi_pll_3ph 000000018001e370 f   c24_dsogi_pll_3ph.obj
 0001:0001d5d0       mdl_cleanup_runtime_resources_c24_dsogi_pll_3ph 000000018001e5d0 f   c24_dsogi_pll_3ph.obj
 0001:0001d610       enable_c24_dsogi_pll_3ph   000000018001e610 f   c24_dsogi_pll_3ph.obj
 0001:0001d640       disable_c24_dsogi_pll_3ph  000000018001e640 f   c24_dsogi_pll_3ph.obj
 0001:0001d670       sf_gateway_c24_dsogi_pll_3ph 000000018001e670 f   c24_dsogi_pll_3ph.obj
 0001:0001daa0       c24_do_animation_call_c24_dsogi_pll_3ph 000000018001eaa0 f   c24_dsogi_pll_3ph.obj
 0001:0001dae0       get_sim_state_c24_dsogi_pll_3ph 000000018001eae0 f   c24_dsogi_pll_3ph.obj
 0001:0001dcb0       set_sim_state_c24_dsogi_pll_3ph 000000018001ecb0 f   c24_dsogi_pll_3ph.obj
 0001:0001ddb0       initSubchartIOPointersc24_dsogi_pll_3ph 000000018001edb0 f   c24_dsogi_pll_3ph.obj
 0001:0001ddc0       c24_emlrt_update_log_1     000000018001edc0 f   c24_dsogi_pll_3ph.obj
 0001:0001e0a0       c24_emlrtInitVarDataTables 000000018001f0a0 f   c24_dsogi_pll_3ph.obj
 0001:0001e280       c24_emlrt_marshallIn       000000018001f280 f   c24_dsogi_pll_3ph.obj
 0001:0001e2f0       c24_b_emlrt_marshallIn     000000018001f2f0 f   c24_dsogi_pll_3ph.obj
 0001:0001e380       c24_c_emlrt_marshallIn     000000018001f380 f   c24_dsogi_pll_3ph.obj
 0001:0001e3f0       c24_d_emlrt_marshallIn     000000018001f3f0 f   c24_dsogi_pll_3ph.obj
 0001:0001e480       c24_chart_data_browse_helper 000000018001f480 f   c24_dsogi_pll_3ph.obj
 0001:0001e750       $LN11                      000000018001f750     c24_dsogi_pll_3ph.obj
 0001:0001e770       init_dsm_address_info      000000018001f770 f   c24_dsogi_pll_3ph.obj
 0001:0001e780       init_simulink_io_address   000000018001f780 f   c24_dsogi_pll_3ph.obj
 0001:0001ea70       sf_get_sim_state_info_c24_dsogi_pll_3ph 000000018001fa70 f   c24_dsogi_pll_3ph.obj
 0001:0001eb30       sf_opaque_initialize_c24_dsogi_pll_3ph 000000018001fb30 f   c24_dsogi_pll_3ph.obj
 0001:0001eb60       sf_opaque_enable_c24_dsogi_pll_3ph 000000018001fb60 f   c24_dsogi_pll_3ph.obj
 0001:0001eb80       sf_opaque_disable_c24_dsogi_pll_3ph 000000018001fb80 f   c24_dsogi_pll_3ph.obj
 0001:0001eba0       sf_opaque_gateway_c24_dsogi_pll_3ph 000000018001fba0 f   c24_dsogi_pll_3ph.obj
 0001:0001ebc0       sf_opaque_get_sim_state_c24_dsogi_pll_3ph 000000018001fbc0 f   c24_dsogi_pll_3ph.obj
 0001:0001ebf0       sf_opaque_set_sim_state_c24_dsogi_pll_3ph 000000018001fbf0 f   c24_dsogi_pll_3ph.obj
 0001:0001ec20       sf_opaque_cleanup_runtime_resources_c24_dsogi_pll_3ph 000000018001fc20 f   c24_dsogi_pll_3ph.obj
 0001:0001ecc0       sf_opaque_mdl_start_c24_dsogi_pll_3ph 000000018001fcc0 f   c24_dsogi_pll_3ph.obj
 0001:0001ed00       sf_opaque_mdl_terminate_c24_dsogi_pll_3ph 000000018001fd00 f   c24_dsogi_pll_3ph.obj
 0001:0001ed20       mdlProcessParameters_c24_dsogi_pll_3ph 000000018001fd20 f   c24_dsogi_pll_3ph.obj
 0001:0001efd0       mdlSetWorkWidths_c24_dsogi_pll_3ph 000000018001ffd0 f   c24_dsogi_pll_3ph.obj
 0001:0001f060       mdlRTW_c24_dsogi_pll_3ph   0000000180020060 f   c24_dsogi_pll_3ph.obj
 0001:0001f0a0       mdlSetupRuntimeResources_c24_dsogi_pll_3ph 00000001800200a0 f   c24_dsogi_pll_3ph.obj
 0001:0001f4d0       initialize_c25_dsogi_pll_3ph 00000001800204d0 f   c25_dsogi_pll_3ph.obj
 0001:0001f560       initialize_params_c25_dsogi_pll_3ph 0000000180020560 f   c25_dsogi_pll_3ph.obj
 0001:0001f570       mdl_start_c25_dsogi_pll_3ph 0000000180020570 f   c25_dsogi_pll_3ph.obj
 0001:0001f5a0       mdl_terminate_c25_dsogi_pll_3ph 00000001800205a0 f   c25_dsogi_pll_3ph.obj
 0001:0001fc60       mdl_setup_runtime_resources_c25_dsogi_pll_3ph 0000000180020c60 f   c25_dsogi_pll_3ph.obj
 0001:0001fec0       mdl_cleanup_runtime_resources_c25_dsogi_pll_3ph 0000000180020ec0 f   c25_dsogi_pll_3ph.obj
 0001:0001ff00       enable_c25_dsogi_pll_3ph   0000000180020f00 f   c25_dsogi_pll_3ph.obj
 0001:0001ff30       disable_c25_dsogi_pll_3ph  0000000180020f30 f   c25_dsogi_pll_3ph.obj
 0001:0001ff60       sf_gateway_c25_dsogi_pll_3ph 0000000180020f60 f   c25_dsogi_pll_3ph.obj
 0001:00020540       c25_do_animation_call_c25_dsogi_pll_3ph 0000000180021540 f   c25_dsogi_pll_3ph.obj
 0001:00020580       get_sim_state_c25_dsogi_pll_3ph 0000000180021580 f   c25_dsogi_pll_3ph.obj
 0001:000206d0       set_sim_state_c25_dsogi_pll_3ph 00000001800216d0 f   c25_dsogi_pll_3ph.obj
 0001:00020790       initSubchartIOPointersc25_dsogi_pll_3ph 0000000180021790 f   c25_dsogi_pll_3ph.obj
 0001:000207a0       c25_emlrt_update_log_1     00000001800217a0 f   c25_dsogi_pll_3ph.obj
 0001:00020a80       c25_emlrtInitVarDataTables 0000000180021a80 f   c25_dsogi_pll_3ph.obj
 0001:00020c60       c25_emlrt_marshallIn       0000000180021c60 f   c25_dsogi_pll_3ph.obj
 0001:00020cd0       c25_b_emlrt_marshallIn     0000000180021cd0 f   c25_dsogi_pll_3ph.obj
 0001:00020d60       c25_c_emlrt_marshallIn     0000000180021d60 f   c25_dsogi_pll_3ph.obj
 0001:00020dd0       c25_d_emlrt_marshallIn     0000000180021dd0 f   c25_dsogi_pll_3ph.obj
 0001:00020e60       c25_chart_data_browse_helper 0000000180021e60 f   c25_dsogi_pll_3ph.obj
 0001:00021070       init_dsm_address_info      0000000180022070 f   c25_dsogi_pll_3ph.obj
 0001:00021080       init_simulink_io_address   0000000180022080 f   c25_dsogi_pll_3ph.obj
 0001:00021330       sf_get_sim_state_info_c25_dsogi_pll_3ph 0000000180022330 f   c25_dsogi_pll_3ph.obj
 0001:000213f0       sf_opaque_initialize_c25_dsogi_pll_3ph 00000001800223f0 f   c25_dsogi_pll_3ph.obj
 0001:00021420       sf_opaque_enable_c25_dsogi_pll_3ph 0000000180022420 f   c25_dsogi_pll_3ph.obj
 0001:00021440       sf_opaque_disable_c25_dsogi_pll_3ph 0000000180022440 f   c25_dsogi_pll_3ph.obj
 0001:00021460       sf_opaque_gateway_c25_dsogi_pll_3ph 0000000180022460 f   c25_dsogi_pll_3ph.obj
 0001:00021480       sf_opaque_get_sim_state_c25_dsogi_pll_3ph 0000000180022480 f   c25_dsogi_pll_3ph.obj
 0001:000214b0       sf_opaque_set_sim_state_c25_dsogi_pll_3ph 00000001800224b0 f   c25_dsogi_pll_3ph.obj
 0001:000214e0       sf_opaque_cleanup_runtime_resources_c25_dsogi_pll_3ph 00000001800224e0 f   c25_dsogi_pll_3ph.obj
 0001:00021580       sf_opaque_mdl_start_c25_dsogi_pll_3ph 0000000180022580 f   c25_dsogi_pll_3ph.obj
 0001:000215c0       sf_opaque_mdl_terminate_c25_dsogi_pll_3ph 00000001800225c0 f   c25_dsogi_pll_3ph.obj
 0001:000215e0       mdlProcessParameters_c25_dsogi_pll_3ph 00000001800225e0 f   c25_dsogi_pll_3ph.obj
 0001:00021890       mdlSetWorkWidths_c25_dsogi_pll_3ph 0000000180022890 f   c25_dsogi_pll_3ph.obj
 0001:00021920       mdlRTW_c25_dsogi_pll_3ph   0000000180022920 f   c25_dsogi_pll_3ph.obj
 0001:00021960       mdlSetupRuntimeResources_c25_dsogi_pll_3ph 0000000180022960 f   c25_dsogi_pll_3ph.obj
 0001:00021d90       initialize_c26_dsogi_pll_3ph 0000000180022d90 f   c26_dsogi_pll_3ph.obj
 0001:00021e20       initialize_params_c26_dsogi_pll_3ph 0000000180022e20 f   c26_dsogi_pll_3ph.obj
 0001:00021e30       mdl_start_c26_dsogi_pll_3ph 0000000180022e30 f   c26_dsogi_pll_3ph.obj
 0001:00021e60       mdl_terminate_c26_dsogi_pll_3ph 0000000180022e60 f   c26_dsogi_pll_3ph.obj
 0001:000220a0       mdl_setup_runtime_resources_c26_dsogi_pll_3ph 00000001800230a0 f   c26_dsogi_pll_3ph.obj
 0001:00022300       mdl_cleanup_runtime_resources_c26_dsogi_pll_3ph 0000000180023300 f   c26_dsogi_pll_3ph.obj
 0001:00022340       enable_c26_dsogi_pll_3ph   0000000180023340 f   c26_dsogi_pll_3ph.obj
 0001:00022370       disable_c26_dsogi_pll_3ph  0000000180023370 f   c26_dsogi_pll_3ph.obj
 0001:000223a0       sf_gateway_c26_dsogi_pll_3ph 00000001800233a0 f   c26_dsogi_pll_3ph.obj
 0001:00022550       c26_do_animation_call_c26_dsogi_pll_3ph 0000000180023550 f   c26_dsogi_pll_3ph.obj
 0001:00022590       get_sim_state_c26_dsogi_pll_3ph 0000000180023590 f   c26_dsogi_pll_3ph.obj
 0001:000226e0       set_sim_state_c26_dsogi_pll_3ph 00000001800236e0 f   c26_dsogi_pll_3ph.obj
 0001:000227a0       initSubchartIOPointersc26_dsogi_pll_3ph 00000001800237a0 f   c26_dsogi_pll_3ph.obj
 0001:000227b0       c26_emlrt_update_log_1     00000001800237b0 f   c26_dsogi_pll_3ph.obj
 0001:00022a90       c26_emlrtInitVarDataTables 0000000180023a90 f   c26_dsogi_pll_3ph.obj
 0001:00022c70       c26_emlrt_marshallIn       0000000180023c70 f   c26_dsogi_pll_3ph.obj
 0001:00022ce0       c26_b_emlrt_marshallIn     0000000180023ce0 f   c26_dsogi_pll_3ph.obj
 0001:00022d70       c26_c_emlrt_marshallIn     0000000180023d70 f   c26_dsogi_pll_3ph.obj
 0001:00022de0       c26_d_emlrt_marshallIn     0000000180023de0 f   c26_dsogi_pll_3ph.obj
 0001:00022e70       c26_chart_data_browse_helper 0000000180023e70 f   c26_dsogi_pll_3ph.obj
 0001:00023000       init_dsm_address_info      0000000180024000 f   c26_dsogi_pll_3ph.obj
 0001:00023010       init_simulink_io_address   0000000180024010 f   c26_dsogi_pll_3ph.obj
 0001:000232a0       sf_get_sim_state_info_c26_dsogi_pll_3ph 00000001800242a0 f   c26_dsogi_pll_3ph.obj
 0001:00023360       sf_opaque_initialize_c26_dsogi_pll_3ph 0000000180024360 f   c26_dsogi_pll_3ph.obj
 0001:00023390       sf_opaque_enable_c26_dsogi_pll_3ph 0000000180024390 f   c26_dsogi_pll_3ph.obj
 0001:000233b0       sf_opaque_disable_c26_dsogi_pll_3ph 00000001800243b0 f   c26_dsogi_pll_3ph.obj
 0001:000233d0       sf_opaque_gateway_c26_dsogi_pll_3ph 00000001800243d0 f   c26_dsogi_pll_3ph.obj
 0001:000233f0       sf_opaque_get_sim_state_c26_dsogi_pll_3ph 00000001800243f0 f   c26_dsogi_pll_3ph.obj
 0001:00023420       sf_opaque_set_sim_state_c26_dsogi_pll_3ph 0000000180024420 f   c26_dsogi_pll_3ph.obj
 0001:00023450       sf_opaque_cleanup_runtime_resources_c26_dsogi_pll_3ph 0000000180024450 f   c26_dsogi_pll_3ph.obj
 0001:000234f0       sf_opaque_mdl_start_c26_dsogi_pll_3ph 00000001800244f0 f   c26_dsogi_pll_3ph.obj
 0001:00023530       sf_opaque_mdl_terminate_c26_dsogi_pll_3ph 0000000180024530 f   c26_dsogi_pll_3ph.obj
 0001:00023550       mdlProcessParameters_c26_dsogi_pll_3ph 0000000180024550 f   c26_dsogi_pll_3ph.obj
 0001:00023800       mdlSetWorkWidths_c26_dsogi_pll_3ph 0000000180024800 f   c26_dsogi_pll_3ph.obj
 0001:00023890       mdlRTW_c26_dsogi_pll_3ph   0000000180024890 f   c26_dsogi_pll_3ph.obj
 0001:000238d0       mdlSetupRuntimeResources_c26_dsogi_pll_3ph 00000001800248d0 f   c26_dsogi_pll_3ph.obj
 0001:00026324       $LN197                     0000000180027324     dsogi_pll_3ph_sfun_registry.obj
 0001:00027184       $LN22                      0000000180028184     dsogi_pll_3ph_sfun_registry.obj
 0001:00027884       $LN26                      0000000180028884     dsogi_pll_3ph_sfun_registry.obj
 0001:00027f64       $LN24                      0000000180028f64     dsogi_pll_3ph_sfun_registry.obj
 0001:00028c9c       $LN30                      0000000180029c9c     dsogi_pll_3ph_sfun_registry.obj
 0001:0002c2b0       ProcessMexSfunctionCmdLineCall 000000018002d2b0 f   dsogi_pll_3ph_sfun_registry.obj
 0001:0002c5c0       mdlSetWorkWidths           000000018002d5c0 f   dsogi_pll_3ph_sfun_registry.obj
 0001:0002c610       mdlProcessParameters       000000018002d610 f   dsogi_pll_3ph_sfun_registry.obj
 0001:0002c640       mdl_setup_runtime_resources_processing 000000018002d640 f   dsogi_pll_3ph_sfun_registry.obj
 0001:0002c6a0       mdlSetupRuntimeResources   000000018002d6a0 f   dsogi_pll_3ph_sfun_registry.obj
 0001:0002c6d0       mdl_cleanup_runtime_resources_processing 000000018002d6d0 f   dsogi_pll_3ph_sfun_registry.obj
 0001:0002c790       mdlCleanupRuntimeResources 000000018002d790 f   dsogi_pll_3ph_sfun_registry.obj
 0001:0002c7c0       mdl_start_processing       000000018002d7c0 f   dsogi_pll_3ph_sfun_registry.obj
 0001:0002c800       mdlStart                   000000018002d800 f   dsogi_pll_3ph_sfun_registry.obj
 0001:0002c830       mdl_terminate_processing   000000018002d830 f   dsogi_pll_3ph_sfun_registry.obj
 0001:0002c870       mdlTerminate               000000018002d870 f   dsogi_pll_3ph_sfun_registry.obj
 0001:0002c8a0       mdlInitializeSizes         000000018002d8a0 f   dsogi_pll_3ph_sfun_registry.obj
 0001:0002c8d0       mdlInitializeSampleTimes   000000018002d8d0 f   dsogi_pll_3ph_sfun_registry.obj
 0001:0002c900       mdl_outputs_continuous_legacy 000000018002d900 f   dsogi_pll_3ph_sfun_registry.obj
 0001:0002ca00       mdl_outputs_processing     000000018002da00 f   dsogi_pll_3ph_sfun_registry.obj
 0001:0002cb40       mdl_zeroCrossings_processing 000000018002db40 f   dsogi_pll_3ph_sfun_registry.obj
 0001:0002cb80       mdlZeroCrossings           000000018002db80 f   dsogi_pll_3ph_sfun_registry.obj
 0001:0002cbb0       mdl_derivatives_processing 000000018002dbb0 f   dsogi_pll_3ph_sfun_registry.obj
 0001:0002cc00       mdlDerivatives             000000018002dc00 f   dsogi_pll_3ph_sfun_registry.obj
 0001:0002cc30       mdl_initialize_conditions_processing 000000018002dc30 f   dsogi_pll_3ph_sfun_registry.obj
 0001:0002cc80       mdlInitializeConditions    000000018002dc80 f   dsogi_pll_3ph_sfun_registry.obj
 0001:0002ccb0       mdl_ext_mode_exec_processing 000000018002dcb0 f   dsogi_pll_3ph_sfun_registry.obj
 0001:0002ccf0       mdlExtModeExec             000000018002dcf0 f   dsogi_pll_3ph_sfun_registry.obj
 0001:0002cd20       mdlRTW                     000000018002dd20 f   dsogi_pll_3ph_sfun_registry.obj
 0001:0002cd60       mdl_enable_processing      000000018002dd60 f   dsogi_pll_3ph_sfun_registry.obj
 0001:0002cda0       mdlEnable                  000000018002dda0 f   dsogi_pll_3ph_sfun_registry.obj
 0001:0002cdd0       mdl_disable_processing     000000018002ddd0 f   dsogi_pll_3ph_sfun_registry.obj
 0001:0002ce10       mdlDisable                 000000018002de10 f   dsogi_pll_3ph_sfun_registry.obj
 0001:0002ce40       mdlOutputs                 000000018002de40 f   dsogi_pll_3ph_sfun_registry.obj
 0001:0002ce70       mdl_update_processing      000000018002de70 f   dsogi_pll_3ph_sfun_registry.obj
 0001:0002cec0       mdlUpdate                  000000018002dec0 f   dsogi_pll_3ph_sfun_registry.obj
 0001:0002d0b0       mdlGetTimeOfNextVarHit     000000018002e0b0 f   dsogi_pll_3ph_sfun_registry.obj
 0001:0002d100       _RegNumInputPortsCB        000000018002e100 f   dsogi_pll_3ph_sfun_registry.obj
 0001:0002d180       _RegNumOutputPortsCB       000000018002e180 f   dsogi_pll_3ph_sfun_registry.obj
 0001:0002d200       _CreateSimStruct           000000018002e200 f   dsogi_pll_3ph_sfun_registry.obj
 0001:0002d430       _ProcessMexSfunctionCmdLineCall 000000018002e430 f   dsogi_pll_3ph_sfun_registry.obj
 0001:0002dea0       ReportIndexOutOfBoundsError 000000018002eea0 f   dsogi_pll_3ph_sfun_registry.obj
 0001:0002ed90       capture_current_context    000000018002fd90 f   MSVCRT:gs_report.obj
 0001:0002ee00       capture_previous_context   000000018002fe00 f   MSVCRT:gs_report.obj
 0001:0002eef0       $$000000                   000000018002fef0     MSVCRT:amdsecgs.obj
 0001:0002ef20       ?dllmain_crt_dispatch@@YAHQEAUHINSTANCE__@@KQEAX@Z 000000018002ff20 f   MSVCRT:dll_dllmain.obj
 0001:0002ef70       ?dllmain_crt_process_attach@@YAHQEAUHINSTANCE__@@QEAX@Z 000000018002ff70 f   MSVCRT:dll_dllmain.obj
 0001:0002f088       ?dllmain_crt_process_detach@@YAH_N@Z 0000000180030088 f   MSVCRT:dll_dllmain.obj
 0001:0002f10c       ?dllmain_dispatch@@YAHQEAUHINSTANCE__@@KQEAX@Z 000000018003010c f   MSVCRT:dll_dllmain.obj
 0001:0002f240       ?dllmain_raw@@YAHQEAUHINSTANCE__@@KQEAX@Z 0000000180030240 f   MSVCRT:dll_dllmain.obj
 0001:0002f2a4       __get_entropy              00000001800302a4 f   MSVCRT:gs_support.obj
 0001:0002f434       ?find_pe_section@@YAPEAU_IMAGE_SECTION_HEADER@@QEAE_K@Z 0000000180030434 f   MSVCRT:utility.obj
 0001:0002f488       ?is_potentially_valid_image_base@@YA_NQEAX@Z 0000000180030488 f   MSVCRT:utility.obj
 0001:0002fbd0       __castguard_check_failure_os_handled_wrapper 0000000180030bd0 f   MSVCRT:guard_support.obj
 0001:0002fc28       __castguard_check_failure_user_handled_wrapper 0000000180030c28 f   MSVCRT:guard_support.obj
 0001:0002fc44       __castguard_compat_check   0000000180030c44 f   MSVCRT:guard_support.obj
 0001:0002fd88       __castguard_slow_path_compat_check 0000000180030d88 f   MSVCRT:guard_support.obj
 0001:000300a0       $$000000                   00000001800310a0     MSVCRT:guard_dispatch.obj
 0001:000300c0       $$000000                   00000001800310c0     MSVCRT:guard_xfg_dispatch.obj
 0001:000300d6       ?fin$0@?0??dllmain_crt_process_attach@@YAHQEAUHINSTANCE__@@QEAX@Z@4HA 00000001800310d6 f   MSVCRT:dll_dllmain.obj
 0001:000300ed       ?fin$0@?0??dllmain_crt_process_detach@@YAH_N@Z@4HA 00000001800310ed f   MSVCRT:dll_dllmain.obj
 0001:00030106       ?fin$1@?0??dllmain_crt_process_detach@@YAH_N@Z@4HA 0000000180031106 f   MSVCRT:dll_dllmain.obj
 0001:0003011a       ?filt$0@?0??dllmain_dispatch@@YAHQEAUHINSTANCE__@@KQEAX@Z@4HA 000000018003111a f   MSVCRT:dll_dllmain.obj
 0001:00030150       __scrt_is_nonwritable_in_current_image$filt$0 0000000180031150 f   MSVCRT:utility.obj
 0002:00000570       ?c1_decisionTxtEndIdx@?1??mdl_setup_runtime_resources_c1_dsogi_pll_3ph@@9@9 0000000180032570     c1_dsogi_pll_3ph.obj
 0002:00000574       ?c1_decisionTxtStartIdx@?1??mdl_setup_runtime_resources_c1_dsogi_pll_3ph@@9@9 0000000180032574     c1_dsogi_pll_3ph.obj
 0002:000005f0       ?c2_decisionTxtEndIdx@?1??mdl_setup_runtime_resources_c2_dsogi_pll_3ph@@9@9 00000001800325f0     c2_dsogi_pll_3ph.obj
 0002:000005f4       ?c2_decisionTxtStartIdx@?1??mdl_setup_runtime_resources_c2_dsogi_pll_3ph@@9@9 00000001800325f4     c2_dsogi_pll_3ph.obj
 0002:000005f8       ?c10_decisionTxtEndIdx@?1??mdl_setup_runtime_resources_c10_dsogi_pll_3ph@@9@9 00000001800325f8     c10_dsogi_pll_3ph.obj
 0002:000005fc       ?c10_decisionTxtStartIdx@?1??mdl_setup_runtime_resources_c10_dsogi_pll_3ph@@9@9 00000001800325fc     c10_dsogi_pll_3ph.obj
 0002:00000630       ?c17_decisionTxtEndIdx@?1??mdl_setup_runtime_resources_c17_dsogi_pll_3ph@@9@9 0000000180032630     c17_dsogi_pll_3ph.obj
 0002:00000634       ?c17_decisionTxtStartIdx@?1??mdl_setup_runtime_resources_c17_dsogi_pll_3ph@@9@9 0000000180032634     c17_dsogi_pll_3ph.obj
 0002:00000658       ?c18_decisionTxtEndIdx@?1??mdl_setup_runtime_resources_c18_dsogi_pll_3ph@@9@9 0000000180032658     c18_dsogi_pll_3ph.obj
 0002:0000065c       ?c18_decisionTxtStartIdx@?1??mdl_setup_runtime_resources_c18_dsogi_pll_3ph@@9@9 000000018003265c     c18_dsogi_pll_3ph.obj
 0002:00000680       ?c19_decisionTxtEndIdx@?1??mdl_setup_runtime_resources_c19_dsogi_pll_3ph@@9@9 0000000180032680     c19_dsogi_pll_3ph.obj
 0002:00000684       ?c19_decisionTxtStartIdx@?1??mdl_setup_runtime_resources_c19_dsogi_pll_3ph@@9@9 0000000180032684     c19_dsogi_pll_3ph.obj
 0002:00000688       ?c20_decisionTxtEndIdx@?1??mdl_setup_runtime_resources_c20_dsogi_pll_3ph@@9@9 0000000180032688     c20_dsogi_pll_3ph.obj
 0002:0000068c       ?c20_decisionTxtStartIdx@?1??mdl_setup_runtime_resources_c20_dsogi_pll_3ph@@9@9 000000018003268c     c20_dsogi_pll_3ph.obj
 0002:00000690       ?c21_decisionTxtEndIdx@?1??mdl_setup_runtime_resources_c21_dsogi_pll_3ph@@9@9 0000000180032690     c21_dsogi_pll_3ph.obj
 0002:00000694       ?c21_decisionTxtStartIdx@?1??mdl_setup_runtime_resources_c21_dsogi_pll_3ph@@9@9 0000000180032694     c21_dsogi_pll_3ph.obj
 0002:000006b8       ?c22_decisionTxtEndIdx@?1??mdl_setup_runtime_resources_c22_dsogi_pll_3ph@@9@9 00000001800326b8     c22_dsogi_pll_3ph.obj
 0002:000006bc       ?c22_decisionTxtStartIdx@?1??mdl_setup_runtime_resources_c22_dsogi_pll_3ph@@9@9 00000001800326bc     c22_dsogi_pll_3ph.obj
 0002:000006c0       ?c23_postfixPredicateTree@?1??mdl_setup_runtime_resources_c23_dsogi_pll_3ph@@9@9 00000001800326c0     c23_dsogi_pll_3ph.obj
 0002:000006cc       ?c23_decisionTxtEndIdx@?1??mdl_setup_runtime_resources_c23_dsogi_pll_3ph@@9@9 00000001800326cc     c23_dsogi_pll_3ph.obj
 0002:000006d0       ?c23_condTxtEndIdx@?1??mdl_setup_runtime_resources_c23_dsogi_pll_3ph@@9@9 00000001800326d0     c23_dsogi_pll_3ph.obj
 0002:000006d8       ?c23_condTxtStartIdx@?1??mdl_setup_runtime_resources_c23_dsogi_pll_3ph@@9@9 00000001800326d8     c23_dsogi_pll_3ph.obj
 0002:000006e0       ?c23_decisionTxtStartIdx@?1??mdl_setup_runtime_resources_c23_dsogi_pll_3ph@@9@9 00000001800326e0     c23_dsogi_pll_3ph.obj
 0002:00000718       ?c24_decisionTxtEndIdx@?1??mdl_setup_runtime_resources_c24_dsogi_pll_3ph@@9@9 0000000180032718     c24_dsogi_pll_3ph.obj
 0002:0000071c       ?c24_decisionTxtStartIdx@?1??mdl_setup_runtime_resources_c24_dsogi_pll_3ph@@9@9 000000018003271c     c24_dsogi_pll_3ph.obj
 0002:00000740       ?c25_decisionTxtEndIdx@?1??mdl_setup_runtime_resources_c25_dsogi_pll_3ph@@9@9 0000000180032740     c25_dsogi_pll_3ph.obj
 0002:00000744       ?c25_decisionTxtStartIdx@?1??mdl_setup_runtime_resources_c25_dsogi_pll_3ph@@9@9 0000000180032744     c25_dsogi_pll_3ph.obj
 0002:00000780       ?c26_decisionTxtEndIdx@?1??mdl_setup_runtime_resources_c26_dsogi_pll_3ph@@9@9 0000000180032780     c26_dsogi_pll_3ph.obj
 0002:00000784       ?c26_decisionTxtStartIdx@?1??mdl_setup_runtime_resources_c26_dsogi_pll_3ph@@9@9 0000000180032784     c26_dsogi_pll_3ph.obj
 0002:000007d0       GS_ExceptionPointers       00000001800327d0     MSVCRT:gs_report.obj
 0002:00000fb8       $unwind$load_dsogi_pll_3ph_optimization_info 0000000180032fb8     dsogi_pll_3ph_sfun.obj
 0002:00000fc0       $unwind$unload_dsogi_pll_3ph_optimization_info 0000000180032fc0     dsogi_pll_3ph_sfun.obj
 0002:00000fc8       $unwind$sf_dsogi_pll_3ph_method_dispatcher 0000000180032fc8     dsogi_pll_3ph_sfun.obj
 0002:00000fd0       $unwind$sf_dsogi_pll_3ph_process_check_sum_call 0000000180032fd0     dsogi_pll_3ph_sfun.obj
 0002:00000fe0       $unwind$sf_dsogi_pll_3ph_get_eml_resolved_functions_info 0000000180032fe0     dsogi_pll_3ph_sfun.obj
 0002:00000ff0       $unwind$sf_dsogi_pll_3ph_third_party_uses_info 0000000180032ff0     dsogi_pll_3ph_sfun.obj
 0002:00001000       $unwind$sf_dsogi_pll_3ph_jit_fallback_info 0000000180033000     dsogi_pll_3ph_sfun.obj
 0002:00001010       $unwind$sf_dsogi_pll_3ph_get_post_codegen_info 0000000180033010     dsogi_pll_3ph_sfun.obj
 0002:00001020       $unwind$sf_dsogi_pll_3ph_updateBuildInfo_args_info 0000000180033020     dsogi_pll_3ph_sfun.obj
 0002:00001030       $unwind$sf_c1_dsogi_pll_3ph_get_eml_resolved_functions_info 0000000180033030     c1_dsogi_pll_3ph.obj
 0002:00001038       $unwind$sf_c1_dsogi_pll_3ph_get_check_sum 0000000180033038     c1_dsogi_pll_3ph.obj
 0002:00001040       $unwind$c1_dsogi_pll_3ph_method_dispatcher 0000000180033040     c1_dsogi_pll_3ph.obj
 0002:00001048       $unwind$initialize_c1_dsogi_pll_3ph 0000000180033048     c1_dsogi_pll_3ph.obj
 0002:00001050       $unwind$mdl_start_c1_dsogi_pll_3ph 0000000180033050     c1_dsogi_pll_3ph.obj
 0002:00001058       $unwind$mdl_terminate_c1_dsogi_pll_3ph 0000000180033058     c1_dsogi_pll_3ph.obj
 0002:0000106c       $unwind$mdl_setup_runtime_resources_c1_dsogi_pll_3ph 000000018003306c     c1_dsogi_pll_3ph.obj
 0002:00001074       $unwind$mdl_cleanup_runtime_resources_c1_dsogi_pll_3ph 0000000180033074     c1_dsogi_pll_3ph.obj
 0002:0000107c       $unwind$enable_c1_dsogi_pll_3ph 000000018003307c     c1_dsogi_pll_3ph.obj
 0002:00001084       $unwind$disable_c1_dsogi_pll_3ph 0000000180033084     c1_dsogi_pll_3ph.obj
 0002:0000108c       $unwind$sf_gateway_c1_dsogi_pll_3ph 000000018003308c     c1_dsogi_pll_3ph.obj
 0002:00001094       $unwind$c1_do_animation_call_c1_dsogi_pll_3ph 0000000180033094     c1_dsogi_pll_3ph.obj
 0002:0000109c       $unwind$get_sim_state_c1_dsogi_pll_3ph 000000018003309c     c1_dsogi_pll_3ph.obj
 0002:000010a4       $unwind$set_sim_state_c1_dsogi_pll_3ph 00000001800330a4     c1_dsogi_pll_3ph.obj
 0002:000010ac       $unwind$c1_emlrt_update_log_1 00000001800330ac     c1_dsogi_pll_3ph.obj
 0002:000010b4       $unwind$c1_emlrtInitVarDataTables 00000001800330b4     c1_dsogi_pll_3ph.obj
 0002:000010bc       $unwind$c1_emlrt_marshallIn 00000001800330bc     c1_dsogi_pll_3ph.obj
 0002:000010c4       $unwind$c1_b_emlrt_marshallIn 00000001800330c4     c1_dsogi_pll_3ph.obj
 0002:000010cc       $unwind$c1_c_emlrt_marshallIn 00000001800330cc     c1_dsogi_pll_3ph.obj
 0002:000010d4       $unwind$c1_d_emlrt_marshallIn 00000001800330d4     c1_dsogi_pll_3ph.obj
 0002:000010dc       $unwind$c1_chart_data_browse_helper 00000001800330dc     c1_dsogi_pll_3ph.obj
 0002:000010e4       $unwind$init_simulink_io_address 00000001800330e4     c1_dsogi_pll_3ph.obj
 0002:000010ec       $unwind$sf_c1_dsogi_pll_3ph_third_party_uses_info 00000001800330ec     c1_dsogi_pll_3ph.obj
 0002:000010f4       $unwind$sf_c1_dsogi_pll_3ph_jit_fallback_info 00000001800330f4     c1_dsogi_pll_3ph.obj
 0002:00001104       $unwind$sf_c1_dsogi_pll_3ph_updateBuildInfo_args_info 0000000180033104     c1_dsogi_pll_3ph.obj
 0002:0000110c       $unwind$sf_get_sim_state_info_c1_dsogi_pll_3ph 000000018003310c     c1_dsogi_pll_3ph.obj
 0002:00001114       $unwind$sf_opaque_initialize_c1_dsogi_pll_3ph 0000000180033114     c1_dsogi_pll_3ph.obj
 0002:0000111c       $unwind$sf_opaque_enable_c1_dsogi_pll_3ph 000000018003311c     c1_dsogi_pll_3ph.obj
 0002:00001124       $unwind$sf_opaque_disable_c1_dsogi_pll_3ph 0000000180033124     c1_dsogi_pll_3ph.obj
 0002:0000112c       $unwind$sf_opaque_gateway_c1_dsogi_pll_3ph 000000018003312c     c1_dsogi_pll_3ph.obj
 0002:00001134       $unwind$sf_opaque_get_sim_state_c1_dsogi_pll_3ph 0000000180033134     c1_dsogi_pll_3ph.obj
 0002:0000113c       $unwind$sf_opaque_set_sim_state_c1_dsogi_pll_3ph 000000018003313c     c1_dsogi_pll_3ph.obj
 0002:00001144       $unwind$sf_opaque_cleanup_runtime_resources_c1_dsogi_pll_3ph 0000000180033144     c1_dsogi_pll_3ph.obj
 0002:0000114c       $unwind$sf_opaque_mdl_start_c1_dsogi_pll_3ph 000000018003314c     c1_dsogi_pll_3ph.obj
 0002:00001154       $unwind$sf_opaque_mdl_terminate_c1_dsogi_pll_3ph 0000000180033154     c1_dsogi_pll_3ph.obj
 0002:0000115c       $unwind$mdlProcessParameters_c1_dsogi_pll_3ph 000000018003315c     c1_dsogi_pll_3ph.obj
 0002:00001164       $unwind$sf_c1_dsogi_pll_3ph_get_post_codegen_info 0000000180033164     c1_dsogi_pll_3ph.obj
 0002:00001174       $unwind$mdlSetWorkWidths_c1_dsogi_pll_3ph 0000000180033174     c1_dsogi_pll_3ph.obj
 0002:0000117c       $unwind$mdlRTW_c1_dsogi_pll_3ph 000000018003317c     c1_dsogi_pll_3ph.obj
 0002:00001184       $unwind$mdlSetupRuntimeResources_c1_dsogi_pll_3ph 0000000180033184     c1_dsogi_pll_3ph.obj
 0002:0000118c       $unwind$sf_c2_dsogi_pll_3ph_get_eml_resolved_functions_info 000000018003318c     c2_dsogi_pll_3ph.obj
 0002:00001194       $unwind$sf_c2_dsogi_pll_3ph_get_check_sum 0000000180033194     c2_dsogi_pll_3ph.obj
 0002:0000119c       $unwind$c2_dsogi_pll_3ph_method_dispatcher 000000018003319c     c2_dsogi_pll_3ph.obj
 0002:000011a4       $unwind$initialize_c2_dsogi_pll_3ph 00000001800331a4     c2_dsogi_pll_3ph.obj
 0002:000011ac       $unwind$mdl_start_c2_dsogi_pll_3ph 00000001800331ac     c2_dsogi_pll_3ph.obj
 0002:000011b4       $unwind$mdl_terminate_c2_dsogi_pll_3ph 00000001800331b4     c2_dsogi_pll_3ph.obj
 0002:000011c8       $unwind$mdl_setup_runtime_resources_c2_dsogi_pll_3ph 00000001800331c8     c2_dsogi_pll_3ph.obj
 0002:000011d0       $unwind$mdl_cleanup_runtime_resources_c2_dsogi_pll_3ph 00000001800331d0     c2_dsogi_pll_3ph.obj
 0002:000011d8       $unwind$enable_c2_dsogi_pll_3ph 00000001800331d8     c2_dsogi_pll_3ph.obj
 0002:000011e0       $unwind$disable_c2_dsogi_pll_3ph 00000001800331e0     c2_dsogi_pll_3ph.obj
 0002:000011e8       $unwind$sf_gateway_c2_dsogi_pll_3ph 00000001800331e8     c2_dsogi_pll_3ph.obj
 0002:000011f0       $unwind$c2_do_animation_call_c2_dsogi_pll_3ph 00000001800331f0     c2_dsogi_pll_3ph.obj
 0002:000011f8       $unwind$get_sim_state_c2_dsogi_pll_3ph 00000001800331f8     c2_dsogi_pll_3ph.obj
 0002:00001200       $unwind$set_sim_state_c2_dsogi_pll_3ph 0000000180033200     c2_dsogi_pll_3ph.obj
 0002:00001208       $unwind$c2_emlrt_update_log_1 0000000180033208     c2_dsogi_pll_3ph.obj
 0002:00001210       $unwind$c2_emlrtInitVarDataTables 0000000180033210     c2_dsogi_pll_3ph.obj
 0002:00001218       $unwind$c2_emlrt_marshallIn 0000000180033218     c2_dsogi_pll_3ph.obj
 0002:00001220       $unwind$c2_b_emlrt_marshallIn 0000000180033220     c2_dsogi_pll_3ph.obj
 0002:00001228       $unwind$c2_c_emlrt_marshallIn 0000000180033228     c2_dsogi_pll_3ph.obj
 0002:00001230       $unwind$c2_d_emlrt_marshallIn 0000000180033230     c2_dsogi_pll_3ph.obj
 0002:00001238       $unwind$c2_chart_data_browse_helper 0000000180033238     c2_dsogi_pll_3ph.obj
 0002:00001240       $unwind$init_simulink_io_address 0000000180033240     c2_dsogi_pll_3ph.obj
 0002:00001248       $unwind$sf_c2_dsogi_pll_3ph_third_party_uses_info 0000000180033248     c2_dsogi_pll_3ph.obj
 0002:00001250       $unwind$sf_c2_dsogi_pll_3ph_jit_fallback_info 0000000180033250     c2_dsogi_pll_3ph.obj
 0002:00001260       $unwind$sf_c2_dsogi_pll_3ph_updateBuildInfo_args_info 0000000180033260     c2_dsogi_pll_3ph.obj
 0002:00001268       $unwind$sf_get_sim_state_info_c2_dsogi_pll_3ph 0000000180033268     c2_dsogi_pll_3ph.obj
 0002:00001270       $unwind$sf_opaque_initialize_c2_dsogi_pll_3ph 0000000180033270     c2_dsogi_pll_3ph.obj
 0002:00001278       $unwind$sf_opaque_enable_c2_dsogi_pll_3ph 0000000180033278     c2_dsogi_pll_3ph.obj
 0002:00001280       $unwind$sf_opaque_disable_c2_dsogi_pll_3ph 0000000180033280     c2_dsogi_pll_3ph.obj
 0002:00001288       $unwind$sf_opaque_gateway_c2_dsogi_pll_3ph 0000000180033288     c2_dsogi_pll_3ph.obj
 0002:00001290       $unwind$sf_opaque_get_sim_state_c2_dsogi_pll_3ph 0000000180033290     c2_dsogi_pll_3ph.obj
 0002:00001298       $unwind$sf_opaque_set_sim_state_c2_dsogi_pll_3ph 0000000180033298     c2_dsogi_pll_3ph.obj
 0002:000012a0       $unwind$sf_opaque_cleanup_runtime_resources_c2_dsogi_pll_3ph 00000001800332a0     c2_dsogi_pll_3ph.obj
 0002:000012a8       $unwind$sf_opaque_mdl_start_c2_dsogi_pll_3ph 00000001800332a8     c2_dsogi_pll_3ph.obj
 0002:000012b0       $unwind$sf_opaque_mdl_terminate_c2_dsogi_pll_3ph 00000001800332b0     c2_dsogi_pll_3ph.obj
 0002:000012b8       $unwind$mdlProcessParameters_c2_dsogi_pll_3ph 00000001800332b8     c2_dsogi_pll_3ph.obj
 0002:000012c0       $unwind$sf_c2_dsogi_pll_3ph_get_post_codegen_info 00000001800332c0     c2_dsogi_pll_3ph.obj
 0002:000012d0       $unwind$mdlSetWorkWidths_c2_dsogi_pll_3ph 00000001800332d0     c2_dsogi_pll_3ph.obj
 0002:000012d8       $unwind$mdlRTW_c2_dsogi_pll_3ph 00000001800332d8     c2_dsogi_pll_3ph.obj
 0002:000012e0       $unwind$mdlSetupRuntimeResources_c2_dsogi_pll_3ph 00000001800332e0     c2_dsogi_pll_3ph.obj
 0002:000012e8       $unwind$sf_c10_dsogi_pll_3ph_get_eml_resolved_functions_info 00000001800332e8     c10_dsogi_pll_3ph.obj
 0002:000012f0       $unwind$sf_c10_dsogi_pll_3ph_get_check_sum 00000001800332f0     c10_dsogi_pll_3ph.obj
 0002:000012f8       $unwind$c10_dsogi_pll_3ph_method_dispatcher 00000001800332f8     c10_dsogi_pll_3ph.obj
 0002:00001300       $unwind$initialize_c10_dsogi_pll_3ph 0000000180033300     c10_dsogi_pll_3ph.obj
 0002:00001308       $unwind$mdl_start_c10_dsogi_pll_3ph 0000000180033308     c10_dsogi_pll_3ph.obj
 0002:00001310       $unwind$mdl_terminate_c10_dsogi_pll_3ph 0000000180033310     c10_dsogi_pll_3ph.obj
 0002:00001324       $unwind$mdl_setup_runtime_resources_c10_dsogi_pll_3ph 0000000180033324     c10_dsogi_pll_3ph.obj
 0002:0000132c       $unwind$mdl_cleanup_runtime_resources_c10_dsogi_pll_3ph 000000018003332c     c10_dsogi_pll_3ph.obj
 0002:00001334       $unwind$enable_c10_dsogi_pll_3ph 0000000180033334     c10_dsogi_pll_3ph.obj
 0002:0000133c       $unwind$disable_c10_dsogi_pll_3ph 000000018003333c     c10_dsogi_pll_3ph.obj
 0002:00001344       $unwind$sf_gateway_c10_dsogi_pll_3ph 0000000180033344     c10_dsogi_pll_3ph.obj
 0002:0000134c       $unwind$c10_do_animation_call_c10_dsogi_pll_3ph 000000018003334c     c10_dsogi_pll_3ph.obj
 0002:00001354       $unwind$get_sim_state_c10_dsogi_pll_3ph 0000000180033354     c10_dsogi_pll_3ph.obj
 0002:0000135c       $unwind$set_sim_state_c10_dsogi_pll_3ph 000000018003335c     c10_dsogi_pll_3ph.obj
 0002:00001364       $unwind$c10_emlrt_update_log_1 0000000180033364     c10_dsogi_pll_3ph.obj
 0002:0000136c       $unwind$c10_emlrtInitVarDataTables 000000018003336c     c10_dsogi_pll_3ph.obj
 0002:00001374       $unwind$c10_emlrt_marshallIn 0000000180033374     c10_dsogi_pll_3ph.obj
 0002:0000137c       $unwind$c10_b_emlrt_marshallIn 000000018003337c     c10_dsogi_pll_3ph.obj
 0002:00001384       $unwind$c10_c_emlrt_marshallIn 0000000180033384     c10_dsogi_pll_3ph.obj
 0002:0000138c       $unwind$c10_d_emlrt_marshallIn 000000018003338c     c10_dsogi_pll_3ph.obj
 0002:00001394       $unwind$c10_chart_data_browse_helper 0000000180033394     c10_dsogi_pll_3ph.obj
 0002:0000139c       $unwind$init_simulink_io_address 000000018003339c     c10_dsogi_pll_3ph.obj
 0002:000013a4       $unwind$sf_c10_dsogi_pll_3ph_third_party_uses_info 00000001800333a4     c10_dsogi_pll_3ph.obj
 0002:000013ac       $unwind$sf_c10_dsogi_pll_3ph_jit_fallback_info 00000001800333ac     c10_dsogi_pll_3ph.obj
 0002:000013bc       $unwind$sf_c10_dsogi_pll_3ph_updateBuildInfo_args_info 00000001800333bc     c10_dsogi_pll_3ph.obj
 0002:000013c4       $unwind$sf_get_sim_state_info_c10_dsogi_pll_3ph 00000001800333c4     c10_dsogi_pll_3ph.obj
 0002:000013cc       $unwind$sf_opaque_initialize_c10_dsogi_pll_3ph 00000001800333cc     c10_dsogi_pll_3ph.obj
 0002:000013d4       $unwind$sf_opaque_enable_c10_dsogi_pll_3ph 00000001800333d4     c10_dsogi_pll_3ph.obj
 0002:000013dc       $unwind$sf_opaque_disable_c10_dsogi_pll_3ph 00000001800333dc     c10_dsogi_pll_3ph.obj
 0002:000013e4       $unwind$sf_opaque_gateway_c10_dsogi_pll_3ph 00000001800333e4     c10_dsogi_pll_3ph.obj
 0002:000013ec       $unwind$sf_opaque_get_sim_state_c10_dsogi_pll_3ph 00000001800333ec     c10_dsogi_pll_3ph.obj
 0002:000013f4       $unwind$sf_opaque_set_sim_state_c10_dsogi_pll_3ph 00000001800333f4     c10_dsogi_pll_3ph.obj
 0002:000013fc       $unwind$sf_opaque_cleanup_runtime_resources_c10_dsogi_pll_3ph 00000001800333fc     c10_dsogi_pll_3ph.obj
 0002:00001404       $unwind$sf_opaque_mdl_start_c10_dsogi_pll_3ph 0000000180033404     c10_dsogi_pll_3ph.obj
 0002:0000140c       $unwind$sf_opaque_mdl_terminate_c10_dsogi_pll_3ph 000000018003340c     c10_dsogi_pll_3ph.obj
 0002:00001414       $unwind$mdlProcessParameters_c10_dsogi_pll_3ph 0000000180033414     c10_dsogi_pll_3ph.obj
 0002:0000141c       $unwind$sf_c10_dsogi_pll_3ph_get_post_codegen_info 000000018003341c     c10_dsogi_pll_3ph.obj
 0002:0000142c       $unwind$mdlSetWorkWidths_c10_dsogi_pll_3ph 000000018003342c     c10_dsogi_pll_3ph.obj
 0002:00001434       $unwind$mdlRTW_c10_dsogi_pll_3ph 0000000180033434     c10_dsogi_pll_3ph.obj
 0002:0000143c       $unwind$mdlSetupRuntimeResources_c10_dsogi_pll_3ph 000000018003343c     c10_dsogi_pll_3ph.obj
 0002:00001444       $unwind$sf_c17_dsogi_pll_3ph_get_eml_resolved_functions_info 0000000180033444     c17_dsogi_pll_3ph.obj
 0002:0000144c       $unwind$sf_c17_dsogi_pll_3ph_get_check_sum 000000018003344c     c17_dsogi_pll_3ph.obj
 0002:00001454       $unwind$c17_dsogi_pll_3ph_method_dispatcher 0000000180033454     c17_dsogi_pll_3ph.obj
 0002:0000145c       $unwind$initialize_c17_dsogi_pll_3ph 000000018003345c     c17_dsogi_pll_3ph.obj
 0002:00001464       $unwind$mdl_start_c17_dsogi_pll_3ph 0000000180033464     c17_dsogi_pll_3ph.obj
 0002:0000146c       $unwind$mdl_terminate_c17_dsogi_pll_3ph 000000018003346c     c17_dsogi_pll_3ph.obj
 0002:0000147c       $unwind$mdl_setup_runtime_resources_c17_dsogi_pll_3ph 000000018003347c     c17_dsogi_pll_3ph.obj
 0002:00001484       $unwind$mdl_cleanup_runtime_resources_c17_dsogi_pll_3ph 0000000180033484     c17_dsogi_pll_3ph.obj
 0002:0000148c       $unwind$enable_c17_dsogi_pll_3ph 000000018003348c     c17_dsogi_pll_3ph.obj
 0002:00001494       $unwind$disable_c17_dsogi_pll_3ph 0000000180033494     c17_dsogi_pll_3ph.obj
 0002:0000149c       $unwind$sf_gateway_c17_dsogi_pll_3ph 000000018003349c     c17_dsogi_pll_3ph.obj
 0002:000014a4       $unwind$c17_do_animation_call_c17_dsogi_pll_3ph 00000001800334a4     c17_dsogi_pll_3ph.obj
 0002:000014ac       $unwind$get_sim_state_c17_dsogi_pll_3ph 00000001800334ac     c17_dsogi_pll_3ph.obj
 0002:000014b4       $unwind$set_sim_state_c17_dsogi_pll_3ph 00000001800334b4     c17_dsogi_pll_3ph.obj
 0002:000014bc       $unwind$c17_emlrt_update_log_1 00000001800334bc     c17_dsogi_pll_3ph.obj
 0002:000014c4       $unwind$c17_emlrtInitVarDataTables 00000001800334c4     c17_dsogi_pll_3ph.obj
 0002:000014cc       $unwind$c17_emlrt_marshallIn 00000001800334cc     c17_dsogi_pll_3ph.obj
 0002:000014d4       $unwind$c17_b_emlrt_marshallIn 00000001800334d4     c17_dsogi_pll_3ph.obj
 0002:000014dc       $unwind$c17_c_emlrt_marshallIn 00000001800334dc     c17_dsogi_pll_3ph.obj
 0002:000014e4       $unwind$c17_d_emlrt_marshallIn 00000001800334e4     c17_dsogi_pll_3ph.obj
 0002:000014ec       $unwind$c17_chart_data_browse_helper 00000001800334ec     c17_dsogi_pll_3ph.obj
 0002:000014f4       $unwind$init_simulink_io_address 00000001800334f4     c17_dsogi_pll_3ph.obj
 0002:000014fc       $unwind$sf_c17_dsogi_pll_3ph_third_party_uses_info 00000001800334fc     c17_dsogi_pll_3ph.obj
 0002:00001504       $unwind$sf_c17_dsogi_pll_3ph_jit_fallback_info 0000000180033504     c17_dsogi_pll_3ph.obj
 0002:00001514       $unwind$sf_c17_dsogi_pll_3ph_updateBuildInfo_args_info 0000000180033514     c17_dsogi_pll_3ph.obj
 0002:0000151c       $unwind$sf_get_sim_state_info_c17_dsogi_pll_3ph 000000018003351c     c17_dsogi_pll_3ph.obj
 0002:00001524       $unwind$sf_opaque_initialize_c17_dsogi_pll_3ph 0000000180033524     c17_dsogi_pll_3ph.obj
 0002:0000152c       $unwind$sf_opaque_enable_c17_dsogi_pll_3ph 000000018003352c     c17_dsogi_pll_3ph.obj
 0002:00001534       $unwind$sf_opaque_disable_c17_dsogi_pll_3ph 0000000180033534     c17_dsogi_pll_3ph.obj
 0002:0000153c       $unwind$sf_opaque_gateway_c17_dsogi_pll_3ph 000000018003353c     c17_dsogi_pll_3ph.obj
 0002:00001544       $unwind$sf_opaque_get_sim_state_c17_dsogi_pll_3ph 0000000180033544     c17_dsogi_pll_3ph.obj
 0002:0000154c       $unwind$sf_opaque_set_sim_state_c17_dsogi_pll_3ph 000000018003354c     c17_dsogi_pll_3ph.obj
 0002:00001554       $unwind$sf_opaque_cleanup_runtime_resources_c17_dsogi_pll_3ph 0000000180033554     c17_dsogi_pll_3ph.obj
 0002:0000155c       $unwind$sf_opaque_mdl_start_c17_dsogi_pll_3ph 000000018003355c     c17_dsogi_pll_3ph.obj
 0002:00001564       $unwind$sf_opaque_mdl_terminate_c17_dsogi_pll_3ph 0000000180033564     c17_dsogi_pll_3ph.obj
 0002:0000156c       $unwind$mdlProcessParameters_c17_dsogi_pll_3ph 000000018003356c     c17_dsogi_pll_3ph.obj
 0002:00001574       $unwind$sf_c17_dsogi_pll_3ph_get_post_codegen_info 0000000180033574     c17_dsogi_pll_3ph.obj
 0002:00001584       $unwind$mdlSetWorkWidths_c17_dsogi_pll_3ph 0000000180033584     c17_dsogi_pll_3ph.obj
 0002:0000158c       $unwind$mdlRTW_c17_dsogi_pll_3ph 000000018003358c     c17_dsogi_pll_3ph.obj
 0002:00001594       $unwind$mdlSetupRuntimeResources_c17_dsogi_pll_3ph 0000000180033594     c17_dsogi_pll_3ph.obj
 0002:0000159c       $unwind$sf_c18_dsogi_pll_3ph_get_eml_resolved_functions_info 000000018003359c     c18_dsogi_pll_3ph.obj
 0002:000015a4       $unwind$sf_c18_dsogi_pll_3ph_get_check_sum 00000001800335a4     c18_dsogi_pll_3ph.obj
 0002:000015ac       $unwind$c18_dsogi_pll_3ph_method_dispatcher 00000001800335ac     c18_dsogi_pll_3ph.obj
 0002:000015b4       $unwind$initialize_c18_dsogi_pll_3ph 00000001800335b4     c18_dsogi_pll_3ph.obj
 0002:000015bc       $unwind$mdl_start_c18_dsogi_pll_3ph 00000001800335bc     c18_dsogi_pll_3ph.obj
 0002:000015c4       $unwind$mdl_terminate_c18_dsogi_pll_3ph 00000001800335c4     c18_dsogi_pll_3ph.obj
 0002:000015d4       $unwind$mdl_setup_runtime_resources_c18_dsogi_pll_3ph 00000001800335d4     c18_dsogi_pll_3ph.obj
 0002:000015dc       $unwind$mdl_cleanup_runtime_resources_c18_dsogi_pll_3ph 00000001800335dc     c18_dsogi_pll_3ph.obj
 0002:000015e4       $unwind$enable_c18_dsogi_pll_3ph 00000001800335e4     c18_dsogi_pll_3ph.obj
 0002:000015ec       $unwind$disable_c18_dsogi_pll_3ph 00000001800335ec     c18_dsogi_pll_3ph.obj
 0002:000015f4       $unwind$sf_gateway_c18_dsogi_pll_3ph 00000001800335f4     c18_dsogi_pll_3ph.obj
 0002:000015fc       $unwind$c18_do_animation_call_c18_dsogi_pll_3ph 00000001800335fc     c18_dsogi_pll_3ph.obj
 0002:00001604       $unwind$get_sim_state_c18_dsogi_pll_3ph 0000000180033604     c18_dsogi_pll_3ph.obj
 0002:0000160c       $unwind$set_sim_state_c18_dsogi_pll_3ph 000000018003360c     c18_dsogi_pll_3ph.obj
 0002:00001614       $unwind$c18_emlrt_update_log_1 0000000180033614     c18_dsogi_pll_3ph.obj
 0002:0000161c       $unwind$c18_emlrtInitVarDataTables 000000018003361c     c18_dsogi_pll_3ph.obj
 0002:00001624       $unwind$c18_emlrt_marshallIn 0000000180033624     c18_dsogi_pll_3ph.obj
 0002:0000162c       $unwind$c18_b_emlrt_marshallIn 000000018003362c     c18_dsogi_pll_3ph.obj
 0002:00001634       $unwind$c18_c_emlrt_marshallIn 0000000180033634     c18_dsogi_pll_3ph.obj
 0002:0000163c       $unwind$c18_d_emlrt_marshallIn 000000018003363c     c18_dsogi_pll_3ph.obj
 0002:00001644       $unwind$c18_chart_data_browse_helper 0000000180033644     c18_dsogi_pll_3ph.obj
 0002:0000164c       $unwind$init_simulink_io_address 000000018003364c     c18_dsogi_pll_3ph.obj
 0002:00001654       $unwind$sf_c18_dsogi_pll_3ph_third_party_uses_info 0000000180033654     c18_dsogi_pll_3ph.obj
 0002:0000165c       $unwind$sf_c18_dsogi_pll_3ph_jit_fallback_info 000000018003365c     c18_dsogi_pll_3ph.obj
 0002:0000166c       $unwind$sf_c18_dsogi_pll_3ph_updateBuildInfo_args_info 000000018003366c     c18_dsogi_pll_3ph.obj
 0002:00001674       $unwind$sf_get_sim_state_info_c18_dsogi_pll_3ph 0000000180033674     c18_dsogi_pll_3ph.obj
 0002:0000167c       $unwind$sf_opaque_initialize_c18_dsogi_pll_3ph 000000018003367c     c18_dsogi_pll_3ph.obj
 0002:00001684       $unwind$sf_opaque_enable_c18_dsogi_pll_3ph 0000000180033684     c18_dsogi_pll_3ph.obj
 0002:0000168c       $unwind$sf_opaque_disable_c18_dsogi_pll_3ph 000000018003368c     c18_dsogi_pll_3ph.obj
 0002:00001694       $unwind$sf_opaque_gateway_c18_dsogi_pll_3ph 0000000180033694     c18_dsogi_pll_3ph.obj
 0002:0000169c       $unwind$sf_opaque_get_sim_state_c18_dsogi_pll_3ph 000000018003369c     c18_dsogi_pll_3ph.obj
 0002:000016a4       $unwind$sf_opaque_set_sim_state_c18_dsogi_pll_3ph 00000001800336a4     c18_dsogi_pll_3ph.obj
 0002:000016ac       $unwind$sf_opaque_cleanup_runtime_resources_c18_dsogi_pll_3ph 00000001800336ac     c18_dsogi_pll_3ph.obj
 0002:000016b4       $unwind$sf_opaque_mdl_start_c18_dsogi_pll_3ph 00000001800336b4     c18_dsogi_pll_3ph.obj
 0002:000016bc       $unwind$sf_opaque_mdl_terminate_c18_dsogi_pll_3ph 00000001800336bc     c18_dsogi_pll_3ph.obj
 0002:000016c4       $unwind$mdlProcessParameters_c18_dsogi_pll_3ph 00000001800336c4     c18_dsogi_pll_3ph.obj
 0002:000016cc       $unwind$sf_c18_dsogi_pll_3ph_get_post_codegen_info 00000001800336cc     c18_dsogi_pll_3ph.obj
 0002:000016dc       $unwind$mdlSetWorkWidths_c18_dsogi_pll_3ph 00000001800336dc     c18_dsogi_pll_3ph.obj
 0002:000016e4       $unwind$mdlRTW_c18_dsogi_pll_3ph 00000001800336e4     c18_dsogi_pll_3ph.obj
 0002:000016ec       $unwind$mdlSetupRuntimeResources_c18_dsogi_pll_3ph 00000001800336ec     c18_dsogi_pll_3ph.obj
 0002:000016f4       $unwind$sf_c19_dsogi_pll_3ph_get_eml_resolved_functions_info 00000001800336f4     c19_dsogi_pll_3ph.obj
 0002:000016fc       $unwind$sf_c19_dsogi_pll_3ph_get_check_sum 00000001800336fc     c19_dsogi_pll_3ph.obj
 0002:00001704       $unwind$c19_dsogi_pll_3ph_method_dispatcher 0000000180033704     c19_dsogi_pll_3ph.obj
 0002:0000170c       $unwind$initialize_c19_dsogi_pll_3ph 000000018003370c     c19_dsogi_pll_3ph.obj
 0002:00001714       $unwind$mdl_start_c19_dsogi_pll_3ph 0000000180033714     c19_dsogi_pll_3ph.obj
 0002:0000171c       $unwind$mdl_terminate_c19_dsogi_pll_3ph 000000018003371c     c19_dsogi_pll_3ph.obj
 0002:0000172c       $unwind$mdl_setup_runtime_resources_c19_dsogi_pll_3ph 000000018003372c     c19_dsogi_pll_3ph.obj
 0002:00001734       $unwind$mdl_cleanup_runtime_resources_c19_dsogi_pll_3ph 0000000180033734     c19_dsogi_pll_3ph.obj
 0002:0000173c       $unwind$enable_c19_dsogi_pll_3ph 000000018003373c     c19_dsogi_pll_3ph.obj
 0002:00001744       $unwind$disable_c19_dsogi_pll_3ph 0000000180033744     c19_dsogi_pll_3ph.obj
 0002:0000174c       $unwind$sf_gateway_c19_dsogi_pll_3ph 000000018003374c     c19_dsogi_pll_3ph.obj
 0002:00001754       $unwind$c19_do_animation_call_c19_dsogi_pll_3ph 0000000180033754     c19_dsogi_pll_3ph.obj
 0002:0000175c       $unwind$get_sim_state_c19_dsogi_pll_3ph 000000018003375c     c19_dsogi_pll_3ph.obj
 0002:00001764       $unwind$set_sim_state_c19_dsogi_pll_3ph 0000000180033764     c19_dsogi_pll_3ph.obj
 0002:0000176c       $unwind$c19_emlrt_update_log_1 000000018003376c     c19_dsogi_pll_3ph.obj
 0002:00001774       $unwind$c19_emlrtInitVarDataTables 0000000180033774     c19_dsogi_pll_3ph.obj
 0002:0000177c       $unwind$c19_emlrt_marshallIn 000000018003377c     c19_dsogi_pll_3ph.obj
 0002:00001784       $unwind$c19_b_emlrt_marshallIn 0000000180033784     c19_dsogi_pll_3ph.obj
 0002:0000178c       $unwind$c19_c_emlrt_marshallIn 000000018003378c     c19_dsogi_pll_3ph.obj
 0002:00001794       $unwind$c19_d_emlrt_marshallIn 0000000180033794     c19_dsogi_pll_3ph.obj
 0002:0000179c       $unwind$c19_chart_data_browse_helper 000000018003379c     c19_dsogi_pll_3ph.obj
 0002:000017a4       $unwind$init_simulink_io_address 00000001800337a4     c19_dsogi_pll_3ph.obj
 0002:000017ac       $unwind$sf_c19_dsogi_pll_3ph_third_party_uses_info 00000001800337ac     c19_dsogi_pll_3ph.obj
 0002:000017b4       $unwind$sf_c19_dsogi_pll_3ph_jit_fallback_info 00000001800337b4     c19_dsogi_pll_3ph.obj
 0002:000017c4       $unwind$sf_c19_dsogi_pll_3ph_updateBuildInfo_args_info 00000001800337c4     c19_dsogi_pll_3ph.obj
 0002:000017cc       $unwind$sf_get_sim_state_info_c19_dsogi_pll_3ph 00000001800337cc     c19_dsogi_pll_3ph.obj
 0002:000017d4       $unwind$sf_opaque_initialize_c19_dsogi_pll_3ph 00000001800337d4     c19_dsogi_pll_3ph.obj
 0002:000017dc       $unwind$sf_opaque_enable_c19_dsogi_pll_3ph 00000001800337dc     c19_dsogi_pll_3ph.obj
 0002:000017e4       $unwind$sf_opaque_disable_c19_dsogi_pll_3ph 00000001800337e4     c19_dsogi_pll_3ph.obj
 0002:000017ec       $unwind$sf_opaque_gateway_c19_dsogi_pll_3ph 00000001800337ec     c19_dsogi_pll_3ph.obj
 0002:000017f4       $unwind$sf_opaque_get_sim_state_c19_dsogi_pll_3ph 00000001800337f4     c19_dsogi_pll_3ph.obj
 0002:000017fc       $unwind$sf_opaque_set_sim_state_c19_dsogi_pll_3ph 00000001800337fc     c19_dsogi_pll_3ph.obj
 0002:00001804       $unwind$sf_opaque_cleanup_runtime_resources_c19_dsogi_pll_3ph 0000000180033804     c19_dsogi_pll_3ph.obj
 0002:0000180c       $unwind$sf_opaque_mdl_start_c19_dsogi_pll_3ph 000000018003380c     c19_dsogi_pll_3ph.obj
 0002:00001814       $unwind$sf_opaque_mdl_terminate_c19_dsogi_pll_3ph 0000000180033814     c19_dsogi_pll_3ph.obj
 0002:0000181c       $unwind$mdlProcessParameters_c19_dsogi_pll_3ph 000000018003381c     c19_dsogi_pll_3ph.obj
 0002:00001824       $unwind$sf_c19_dsogi_pll_3ph_get_post_codegen_info 0000000180033824     c19_dsogi_pll_3ph.obj
 0002:00001834       $unwind$mdlSetWorkWidths_c19_dsogi_pll_3ph 0000000180033834     c19_dsogi_pll_3ph.obj
 0002:0000183c       $unwind$mdlRTW_c19_dsogi_pll_3ph 000000018003383c     c19_dsogi_pll_3ph.obj
 0002:00001844       $unwind$mdlSetupRuntimeResources_c19_dsogi_pll_3ph 0000000180033844     c19_dsogi_pll_3ph.obj
 0002:0000184c       $unwind$sf_c20_dsogi_pll_3ph_get_eml_resolved_functions_info 000000018003384c     c20_dsogi_pll_3ph.obj
 0002:00001854       $unwind$sf_c20_dsogi_pll_3ph_get_check_sum 0000000180033854     c20_dsogi_pll_3ph.obj
 0002:0000185c       $unwind$c20_dsogi_pll_3ph_method_dispatcher 000000018003385c     c20_dsogi_pll_3ph.obj
 0002:00001864       $unwind$initialize_c20_dsogi_pll_3ph 0000000180033864     c20_dsogi_pll_3ph.obj
 0002:0000186c       $unwind$mdl_start_c20_dsogi_pll_3ph 000000018003386c     c20_dsogi_pll_3ph.obj
 0002:00001874       $unwind$mdl_terminate_c20_dsogi_pll_3ph 0000000180033874     c20_dsogi_pll_3ph.obj
 0002:00001884       $unwind$mdl_setup_runtime_resources_c20_dsogi_pll_3ph 0000000180033884     c20_dsogi_pll_3ph.obj
 0002:0000188c       $unwind$mdl_cleanup_runtime_resources_c20_dsogi_pll_3ph 000000018003388c     c20_dsogi_pll_3ph.obj
 0002:00001894       $unwind$enable_c20_dsogi_pll_3ph 0000000180033894     c20_dsogi_pll_3ph.obj
 0002:0000189c       $unwind$disable_c20_dsogi_pll_3ph 000000018003389c     c20_dsogi_pll_3ph.obj
 0002:000018a4       $unwind$sf_gateway_c20_dsogi_pll_3ph 00000001800338a4     c20_dsogi_pll_3ph.obj
 0002:000018ac       $unwind$c20_do_animation_call_c20_dsogi_pll_3ph 00000001800338ac     c20_dsogi_pll_3ph.obj
 0002:000018b4       $unwind$get_sim_state_c20_dsogi_pll_3ph 00000001800338b4     c20_dsogi_pll_3ph.obj
 0002:000018bc       $unwind$set_sim_state_c20_dsogi_pll_3ph 00000001800338bc     c20_dsogi_pll_3ph.obj
 0002:000018c4       $unwind$c20_emlrt_update_log_1 00000001800338c4     c20_dsogi_pll_3ph.obj
 0002:000018cc       $unwind$c20_emlrtInitVarDataTables 00000001800338cc     c20_dsogi_pll_3ph.obj
 0002:000018d4       $unwind$c20_emlrt_marshallIn 00000001800338d4     c20_dsogi_pll_3ph.obj
 0002:000018dc       $unwind$c20_b_emlrt_marshallIn 00000001800338dc     c20_dsogi_pll_3ph.obj
 0002:000018e4       $unwind$c20_c_emlrt_marshallIn 00000001800338e4     c20_dsogi_pll_3ph.obj
 0002:000018ec       $unwind$c20_d_emlrt_marshallIn 00000001800338ec     c20_dsogi_pll_3ph.obj
 0002:000018f4       $unwind$c20_chart_data_browse_helper 00000001800338f4     c20_dsogi_pll_3ph.obj
 0002:000018fc       $unwind$init_simulink_io_address 00000001800338fc     c20_dsogi_pll_3ph.obj
 0002:00001904       $unwind$sf_c20_dsogi_pll_3ph_third_party_uses_info 0000000180033904     c20_dsogi_pll_3ph.obj
 0002:0000190c       $unwind$sf_c20_dsogi_pll_3ph_jit_fallback_info 000000018003390c     c20_dsogi_pll_3ph.obj
 0002:0000191c       $unwind$sf_c20_dsogi_pll_3ph_updateBuildInfo_args_info 000000018003391c     c20_dsogi_pll_3ph.obj
 0002:00001924       $unwind$sf_get_sim_state_info_c20_dsogi_pll_3ph 0000000180033924     c20_dsogi_pll_3ph.obj
 0002:0000192c       $unwind$sf_opaque_initialize_c20_dsogi_pll_3ph 000000018003392c     c20_dsogi_pll_3ph.obj
 0002:00001934       $unwind$sf_opaque_enable_c20_dsogi_pll_3ph 0000000180033934     c20_dsogi_pll_3ph.obj
 0002:0000193c       $unwind$sf_opaque_disable_c20_dsogi_pll_3ph 000000018003393c     c20_dsogi_pll_3ph.obj
 0002:00001944       $unwind$sf_opaque_gateway_c20_dsogi_pll_3ph 0000000180033944     c20_dsogi_pll_3ph.obj
 0002:0000194c       $unwind$sf_opaque_get_sim_state_c20_dsogi_pll_3ph 000000018003394c     c20_dsogi_pll_3ph.obj
 0002:00001954       $unwind$sf_opaque_set_sim_state_c20_dsogi_pll_3ph 0000000180033954     c20_dsogi_pll_3ph.obj
 0002:0000195c       $unwind$sf_opaque_cleanup_runtime_resources_c20_dsogi_pll_3ph 000000018003395c     c20_dsogi_pll_3ph.obj
 0002:00001964       $unwind$sf_opaque_mdl_start_c20_dsogi_pll_3ph 0000000180033964     c20_dsogi_pll_3ph.obj
 0002:0000196c       $unwind$sf_opaque_mdl_terminate_c20_dsogi_pll_3ph 000000018003396c     c20_dsogi_pll_3ph.obj
 0002:00001974       $unwind$mdlProcessParameters_c20_dsogi_pll_3ph 0000000180033974     c20_dsogi_pll_3ph.obj
 0002:0000197c       $unwind$sf_c20_dsogi_pll_3ph_get_post_codegen_info 000000018003397c     c20_dsogi_pll_3ph.obj
 0002:0000198c       $unwind$mdlSetWorkWidths_c20_dsogi_pll_3ph 000000018003398c     c20_dsogi_pll_3ph.obj
 0002:00001994       $unwind$mdlRTW_c20_dsogi_pll_3ph 0000000180033994     c20_dsogi_pll_3ph.obj
 0002:0000199c       $unwind$mdlSetupRuntimeResources_c20_dsogi_pll_3ph 000000018003399c     c20_dsogi_pll_3ph.obj
 0002:000019a4       $unwind$sf_c21_dsogi_pll_3ph_get_eml_resolved_functions_info 00000001800339a4     c21_dsogi_pll_3ph.obj
 0002:000019ac       $unwind$sf_c21_dsogi_pll_3ph_get_check_sum 00000001800339ac     c21_dsogi_pll_3ph.obj
 0002:000019b4       $unwind$c21_dsogi_pll_3ph_method_dispatcher 00000001800339b4     c21_dsogi_pll_3ph.obj
 0002:000019bc       $unwind$initialize_c21_dsogi_pll_3ph 00000001800339bc     c21_dsogi_pll_3ph.obj
 0002:000019c4       $unwind$mdl_start_c21_dsogi_pll_3ph 00000001800339c4     c21_dsogi_pll_3ph.obj
 0002:000019cc       $unwind$mdl_terminate_c21_dsogi_pll_3ph 00000001800339cc     c21_dsogi_pll_3ph.obj
 0002:000019dc       $unwind$mdl_setup_runtime_resources_c21_dsogi_pll_3ph 00000001800339dc     c21_dsogi_pll_3ph.obj
 0002:000019e4       $unwind$mdl_cleanup_runtime_resources_c21_dsogi_pll_3ph 00000001800339e4     c21_dsogi_pll_3ph.obj
 0002:000019ec       $unwind$enable_c21_dsogi_pll_3ph 00000001800339ec     c21_dsogi_pll_3ph.obj
 0002:000019f4       $unwind$disable_c21_dsogi_pll_3ph 00000001800339f4     c21_dsogi_pll_3ph.obj
 0002:000019fc       $unwind$sf_gateway_c21_dsogi_pll_3ph 00000001800339fc     c21_dsogi_pll_3ph.obj
 0002:00001a04       $unwind$c21_do_animation_call_c21_dsogi_pll_3ph 0000000180033a04     c21_dsogi_pll_3ph.obj
 0002:00001a0c       $unwind$get_sim_state_c21_dsogi_pll_3ph 0000000180033a0c     c21_dsogi_pll_3ph.obj
 0002:00001a14       $unwind$set_sim_state_c21_dsogi_pll_3ph 0000000180033a14     c21_dsogi_pll_3ph.obj
 0002:00001a1c       $unwind$c21_emlrt_update_log_1 0000000180033a1c     c21_dsogi_pll_3ph.obj
 0002:00001a24       $unwind$c21_emlrtInitVarDataTables 0000000180033a24     c21_dsogi_pll_3ph.obj
 0002:00001a2c       $unwind$c21_emlrt_marshallIn 0000000180033a2c     c21_dsogi_pll_3ph.obj
 0002:00001a34       $unwind$c21_b_emlrt_marshallIn 0000000180033a34     c21_dsogi_pll_3ph.obj
 0002:00001a3c       $unwind$c21_c_emlrt_marshallIn 0000000180033a3c     c21_dsogi_pll_3ph.obj
 0002:00001a44       $unwind$c21_d_emlrt_marshallIn 0000000180033a44     c21_dsogi_pll_3ph.obj
 0002:00001a4c       $unwind$c21_chart_data_browse_helper 0000000180033a4c     c21_dsogi_pll_3ph.obj
 0002:00001a54       $unwind$init_simulink_io_address 0000000180033a54     c21_dsogi_pll_3ph.obj
 0002:00001a5c       $unwind$sf_c21_dsogi_pll_3ph_third_party_uses_info 0000000180033a5c     c21_dsogi_pll_3ph.obj
 0002:00001a64       $unwind$sf_c21_dsogi_pll_3ph_jit_fallback_info 0000000180033a64     c21_dsogi_pll_3ph.obj
 0002:00001a74       $unwind$sf_c21_dsogi_pll_3ph_updateBuildInfo_args_info 0000000180033a74     c21_dsogi_pll_3ph.obj
 0002:00001a7c       $unwind$sf_get_sim_state_info_c21_dsogi_pll_3ph 0000000180033a7c     c21_dsogi_pll_3ph.obj
 0002:00001a84       $unwind$sf_opaque_initialize_c21_dsogi_pll_3ph 0000000180033a84     c21_dsogi_pll_3ph.obj
 0002:00001a8c       $unwind$sf_opaque_enable_c21_dsogi_pll_3ph 0000000180033a8c     c21_dsogi_pll_3ph.obj
 0002:00001a94       $unwind$sf_opaque_disable_c21_dsogi_pll_3ph 0000000180033a94     c21_dsogi_pll_3ph.obj
 0002:00001a9c       $unwind$sf_opaque_gateway_c21_dsogi_pll_3ph 0000000180033a9c     c21_dsogi_pll_3ph.obj
 0002:00001aa4       $unwind$sf_opaque_get_sim_state_c21_dsogi_pll_3ph 0000000180033aa4     c21_dsogi_pll_3ph.obj
 0002:00001aac       $unwind$sf_opaque_set_sim_state_c21_dsogi_pll_3ph 0000000180033aac     c21_dsogi_pll_3ph.obj
 0002:00001ab4       $unwind$sf_opaque_cleanup_runtime_resources_c21_dsogi_pll_3ph 0000000180033ab4     c21_dsogi_pll_3ph.obj
 0002:00001abc       $unwind$sf_opaque_mdl_start_c21_dsogi_pll_3ph 0000000180033abc     c21_dsogi_pll_3ph.obj
 0002:00001ac4       $unwind$sf_opaque_mdl_terminate_c21_dsogi_pll_3ph 0000000180033ac4     c21_dsogi_pll_3ph.obj
 0002:00001acc       $unwind$mdlProcessParameters_c21_dsogi_pll_3ph 0000000180033acc     c21_dsogi_pll_3ph.obj
 0002:00001ad4       $unwind$sf_c21_dsogi_pll_3ph_get_post_codegen_info 0000000180033ad4     c21_dsogi_pll_3ph.obj
 0002:00001ae4       $unwind$mdlSetWorkWidths_c21_dsogi_pll_3ph 0000000180033ae4     c21_dsogi_pll_3ph.obj
 0002:00001aec       $unwind$mdlRTW_c21_dsogi_pll_3ph 0000000180033aec     c21_dsogi_pll_3ph.obj
 0002:00001af4       $unwind$mdlSetupRuntimeResources_c21_dsogi_pll_3ph 0000000180033af4     c21_dsogi_pll_3ph.obj
 0002:00001afc       $unwind$sf_c22_dsogi_pll_3ph_get_eml_resolved_functions_info 0000000180033afc     c22_dsogi_pll_3ph.obj
 0002:00001b04       $unwind$sf_c22_dsogi_pll_3ph_get_check_sum 0000000180033b04     c22_dsogi_pll_3ph.obj
 0002:00001b0c       $unwind$c22_dsogi_pll_3ph_method_dispatcher 0000000180033b0c     c22_dsogi_pll_3ph.obj
 0002:00001b14       $unwind$initialize_c22_dsogi_pll_3ph 0000000180033b14     c22_dsogi_pll_3ph.obj
 0002:00001b1c       $unwind$mdl_start_c22_dsogi_pll_3ph 0000000180033b1c     c22_dsogi_pll_3ph.obj
 0002:00001b24       $unwind$mdl_terminate_c22_dsogi_pll_3ph 0000000180033b24     c22_dsogi_pll_3ph.obj
 0002:00001b34       $unwind$mdl_setup_runtime_resources_c22_dsogi_pll_3ph 0000000180033b34     c22_dsogi_pll_3ph.obj
 0002:00001b3c       $unwind$mdl_cleanup_runtime_resources_c22_dsogi_pll_3ph 0000000180033b3c     c22_dsogi_pll_3ph.obj
 0002:00001b44       $unwind$enable_c22_dsogi_pll_3ph 0000000180033b44     c22_dsogi_pll_3ph.obj
 0002:00001b4c       $unwind$disable_c22_dsogi_pll_3ph 0000000180033b4c     c22_dsogi_pll_3ph.obj
 0002:00001b54       $unwind$sf_gateway_c22_dsogi_pll_3ph 0000000180033b54     c22_dsogi_pll_3ph.obj
 0002:00001b5c       $unwind$c22_do_animation_call_c22_dsogi_pll_3ph 0000000180033b5c     c22_dsogi_pll_3ph.obj
 0002:00001b64       $unwind$get_sim_state_c22_dsogi_pll_3ph 0000000180033b64     c22_dsogi_pll_3ph.obj
 0002:00001b6c       $unwind$set_sim_state_c22_dsogi_pll_3ph 0000000180033b6c     c22_dsogi_pll_3ph.obj
 0002:00001b74       $unwind$c22_emlrt_update_log_1 0000000180033b74     c22_dsogi_pll_3ph.obj
 0002:00001b7c       $unwind$c22_emlrtInitVarDataTables 0000000180033b7c     c22_dsogi_pll_3ph.obj
 0002:00001b84       $unwind$c22_emlrt_marshallIn 0000000180033b84     c22_dsogi_pll_3ph.obj
 0002:00001b8c       $unwind$c22_b_emlrt_marshallIn 0000000180033b8c     c22_dsogi_pll_3ph.obj
 0002:00001b94       $unwind$c22_c_emlrt_marshallIn 0000000180033b94     c22_dsogi_pll_3ph.obj
 0002:00001b9c       $unwind$c22_d_emlrt_marshallIn 0000000180033b9c     c22_dsogi_pll_3ph.obj
 0002:00001ba4       $unwind$c22_chart_data_browse_helper 0000000180033ba4     c22_dsogi_pll_3ph.obj
 0002:00001bac       $unwind$init_simulink_io_address 0000000180033bac     c22_dsogi_pll_3ph.obj
 0002:00001bb4       $unwind$sf_c22_dsogi_pll_3ph_third_party_uses_info 0000000180033bb4     c22_dsogi_pll_3ph.obj
 0002:00001bbc       $unwind$sf_c22_dsogi_pll_3ph_jit_fallback_info 0000000180033bbc     c22_dsogi_pll_3ph.obj
 0002:00001bcc       $unwind$sf_c22_dsogi_pll_3ph_updateBuildInfo_args_info 0000000180033bcc     c22_dsogi_pll_3ph.obj
 0002:00001bd4       $unwind$sf_get_sim_state_info_c22_dsogi_pll_3ph 0000000180033bd4     c22_dsogi_pll_3ph.obj
 0002:00001bdc       $unwind$sf_opaque_initialize_c22_dsogi_pll_3ph 0000000180033bdc     c22_dsogi_pll_3ph.obj
 0002:00001be4       $unwind$sf_opaque_enable_c22_dsogi_pll_3ph 0000000180033be4     c22_dsogi_pll_3ph.obj
 0002:00001bec       $unwind$sf_opaque_disable_c22_dsogi_pll_3ph 0000000180033bec     c22_dsogi_pll_3ph.obj
 0002:00001bf4       $unwind$sf_opaque_gateway_c22_dsogi_pll_3ph 0000000180033bf4     c22_dsogi_pll_3ph.obj
 0002:00001bfc       $unwind$sf_opaque_get_sim_state_c22_dsogi_pll_3ph 0000000180033bfc     c22_dsogi_pll_3ph.obj
 0002:00001c04       $unwind$sf_opaque_set_sim_state_c22_dsogi_pll_3ph 0000000180033c04     c22_dsogi_pll_3ph.obj
 0002:00001c0c       $unwind$sf_opaque_cleanup_runtime_resources_c22_dsogi_pll_3ph 0000000180033c0c     c22_dsogi_pll_3ph.obj
 0002:00001c14       $unwind$sf_opaque_mdl_start_c22_dsogi_pll_3ph 0000000180033c14     c22_dsogi_pll_3ph.obj
 0002:00001c1c       $unwind$sf_opaque_mdl_terminate_c22_dsogi_pll_3ph 0000000180033c1c     c22_dsogi_pll_3ph.obj
 0002:00001c24       $unwind$mdlProcessParameters_c22_dsogi_pll_3ph 0000000180033c24     c22_dsogi_pll_3ph.obj
 0002:00001c2c       $unwind$sf_c22_dsogi_pll_3ph_get_post_codegen_info 0000000180033c2c     c22_dsogi_pll_3ph.obj
 0002:00001c3c       $unwind$mdlSetWorkWidths_c22_dsogi_pll_3ph 0000000180033c3c     c22_dsogi_pll_3ph.obj
 0002:00001c44       $unwind$mdlRTW_c22_dsogi_pll_3ph 0000000180033c44     c22_dsogi_pll_3ph.obj
 0002:00001c4c       $unwind$mdlSetupRuntimeResources_c22_dsogi_pll_3ph 0000000180033c4c     c22_dsogi_pll_3ph.obj
 0002:00001c54       $unwind$sf_c23_dsogi_pll_3ph_get_eml_resolved_functions_info 0000000180033c54     c23_dsogi_pll_3ph.obj
 0002:00001c5c       $unwind$sf_c23_dsogi_pll_3ph_get_check_sum 0000000180033c5c     c23_dsogi_pll_3ph.obj
 0002:00001c64       $unwind$c23_dsogi_pll_3ph_method_dispatcher 0000000180033c64     c23_dsogi_pll_3ph.obj
 0002:00001c6c       $unwind$initialize_c23_dsogi_pll_3ph 0000000180033c6c     c23_dsogi_pll_3ph.obj
 0002:00001c74       $unwind$mdl_start_c23_dsogi_pll_3ph 0000000180033c74     c23_dsogi_pll_3ph.obj
 0002:00001c7c       $unwind$mdl_terminate_c23_dsogi_pll_3ph 0000000180033c7c     c23_dsogi_pll_3ph.obj
 0002:00001c90       $unwind$mdl_setup_runtime_resources_c23_dsogi_pll_3ph 0000000180033c90     c23_dsogi_pll_3ph.obj
 0002:00001c98       $unwind$mdl_cleanup_runtime_resources_c23_dsogi_pll_3ph 0000000180033c98     c23_dsogi_pll_3ph.obj
 0002:00001ca0       $unwind$enable_c23_dsogi_pll_3ph 0000000180033ca0     c23_dsogi_pll_3ph.obj
 0002:00001ca8       $unwind$disable_c23_dsogi_pll_3ph 0000000180033ca8     c23_dsogi_pll_3ph.obj
 0002:00001cb0       $unwind$sf_gateway_c23_dsogi_pll_3ph 0000000180033cb0     c23_dsogi_pll_3ph.obj
 0002:00001cb8       $unwind$c23_do_animation_call_c23_dsogi_pll_3ph 0000000180033cb8     c23_dsogi_pll_3ph.obj
 0002:00001cc0       $unwind$get_sim_state_c23_dsogi_pll_3ph 0000000180033cc0     c23_dsogi_pll_3ph.obj
 0002:00001cc8       $unwind$set_sim_state_c23_dsogi_pll_3ph 0000000180033cc8     c23_dsogi_pll_3ph.obj
 0002:00001cd0       $unwind$c23_emlrt_update_log_1 0000000180033cd0     c23_dsogi_pll_3ph.obj
 0002:00001cd8       $unwind$c23_emlrtInitVarDataTables 0000000180033cd8     c23_dsogi_pll_3ph.obj
 0002:00001ce0       $unwind$c23_emlrt_marshallIn 0000000180033ce0     c23_dsogi_pll_3ph.obj
 0002:00001ce8       $unwind$c23_b_emlrt_marshallIn 0000000180033ce8     c23_dsogi_pll_3ph.obj
 0002:00001cf0       $unwind$c23_c_emlrt_marshallIn 0000000180033cf0     c23_dsogi_pll_3ph.obj
 0002:00001cf8       $unwind$c23_d_emlrt_marshallIn 0000000180033cf8     c23_dsogi_pll_3ph.obj
 0002:00001d00       $unwind$c23_chart_data_browse_helper 0000000180033d00     c23_dsogi_pll_3ph.obj
 0002:00001d08       $unwind$init_simulink_io_address 0000000180033d08     c23_dsogi_pll_3ph.obj
 0002:00001d10       $unwind$sf_c23_dsogi_pll_3ph_third_party_uses_info 0000000180033d10     c23_dsogi_pll_3ph.obj
 0002:00001d18       $unwind$sf_c23_dsogi_pll_3ph_jit_fallback_info 0000000180033d18     c23_dsogi_pll_3ph.obj
 0002:00001d28       $unwind$sf_c23_dsogi_pll_3ph_updateBuildInfo_args_info 0000000180033d28     c23_dsogi_pll_3ph.obj
 0002:00001d30       $unwind$sf_get_sim_state_info_c23_dsogi_pll_3ph 0000000180033d30     c23_dsogi_pll_3ph.obj
 0002:00001d38       $unwind$sf_opaque_initialize_c23_dsogi_pll_3ph 0000000180033d38     c23_dsogi_pll_3ph.obj
 0002:00001d40       $unwind$sf_opaque_enable_c23_dsogi_pll_3ph 0000000180033d40     c23_dsogi_pll_3ph.obj
 0002:00001d48       $unwind$sf_opaque_disable_c23_dsogi_pll_3ph 0000000180033d48     c23_dsogi_pll_3ph.obj
 0002:00001d50       $unwind$sf_opaque_gateway_c23_dsogi_pll_3ph 0000000180033d50     c23_dsogi_pll_3ph.obj
 0002:00001d58       $unwind$sf_opaque_get_sim_state_c23_dsogi_pll_3ph 0000000180033d58     c23_dsogi_pll_3ph.obj
 0002:00001d60       $unwind$sf_opaque_set_sim_state_c23_dsogi_pll_3ph 0000000180033d60     c23_dsogi_pll_3ph.obj
 0002:00001d68       $unwind$sf_opaque_cleanup_runtime_resources_c23_dsogi_pll_3ph 0000000180033d68     c23_dsogi_pll_3ph.obj
 0002:00001d70       $unwind$sf_opaque_mdl_start_c23_dsogi_pll_3ph 0000000180033d70     c23_dsogi_pll_3ph.obj
 0002:00001d78       $unwind$sf_opaque_mdl_terminate_c23_dsogi_pll_3ph 0000000180033d78     c23_dsogi_pll_3ph.obj
 0002:00001d80       $unwind$mdlProcessParameters_c23_dsogi_pll_3ph 0000000180033d80     c23_dsogi_pll_3ph.obj
 0002:00001d88       $unwind$sf_c23_dsogi_pll_3ph_get_post_codegen_info 0000000180033d88     c23_dsogi_pll_3ph.obj
 0002:00001d98       $unwind$mdlSetWorkWidths_c23_dsogi_pll_3ph 0000000180033d98     c23_dsogi_pll_3ph.obj
 0002:00001da0       $unwind$mdlRTW_c23_dsogi_pll_3ph 0000000180033da0     c23_dsogi_pll_3ph.obj
 0002:00001da8       $unwind$mdlSetupRuntimeResources_c23_dsogi_pll_3ph 0000000180033da8     c23_dsogi_pll_3ph.obj
 0002:00001db0       $unwind$sf_c24_dsogi_pll_3ph_get_eml_resolved_functions_info 0000000180033db0     c24_dsogi_pll_3ph.obj
 0002:00001db8       $unwind$sf_c24_dsogi_pll_3ph_get_check_sum 0000000180033db8     c24_dsogi_pll_3ph.obj
 0002:00001dc0       $unwind$c24_dsogi_pll_3ph_method_dispatcher 0000000180033dc0     c24_dsogi_pll_3ph.obj
 0002:00001dc8       $unwind$initialize_c24_dsogi_pll_3ph 0000000180033dc8     c24_dsogi_pll_3ph.obj
 0002:00001dd0       $unwind$mdl_start_c24_dsogi_pll_3ph 0000000180033dd0     c24_dsogi_pll_3ph.obj
 0002:00001dd8       $unwind$mdl_terminate_c24_dsogi_pll_3ph 0000000180033dd8     c24_dsogi_pll_3ph.obj
 0002:00001dec       $unwind$mdl_setup_runtime_resources_c24_dsogi_pll_3ph 0000000180033dec     c24_dsogi_pll_3ph.obj
 0002:00001df4       $unwind$mdl_cleanup_runtime_resources_c24_dsogi_pll_3ph 0000000180033df4     c24_dsogi_pll_3ph.obj
 0002:00001dfc       $unwind$enable_c24_dsogi_pll_3ph 0000000180033dfc     c24_dsogi_pll_3ph.obj
 0002:00001e04       $unwind$disable_c24_dsogi_pll_3ph 0000000180033e04     c24_dsogi_pll_3ph.obj
 0002:00001e0c       $unwind$sf_gateway_c24_dsogi_pll_3ph 0000000180033e0c     c24_dsogi_pll_3ph.obj
 0002:00001e14       $unwind$c24_do_animation_call_c24_dsogi_pll_3ph 0000000180033e14     c24_dsogi_pll_3ph.obj
 0002:00001e1c       $unwind$get_sim_state_c24_dsogi_pll_3ph 0000000180033e1c     c24_dsogi_pll_3ph.obj
 0002:00001e24       $unwind$set_sim_state_c24_dsogi_pll_3ph 0000000180033e24     c24_dsogi_pll_3ph.obj
 0002:00001e2c       $unwind$c24_emlrt_update_log_1 0000000180033e2c     c24_dsogi_pll_3ph.obj
 0002:00001e34       $unwind$c24_emlrtInitVarDataTables 0000000180033e34     c24_dsogi_pll_3ph.obj
 0002:00001e3c       $unwind$c24_emlrt_marshallIn 0000000180033e3c     c24_dsogi_pll_3ph.obj
 0002:00001e44       $unwind$c24_b_emlrt_marshallIn 0000000180033e44     c24_dsogi_pll_3ph.obj
 0002:00001e4c       $unwind$c24_c_emlrt_marshallIn 0000000180033e4c     c24_dsogi_pll_3ph.obj
 0002:00001e54       $unwind$c24_d_emlrt_marshallIn 0000000180033e54     c24_dsogi_pll_3ph.obj
 0002:00001e5c       $unwind$c24_chart_data_browse_helper 0000000180033e5c     c24_dsogi_pll_3ph.obj
 0002:00001e64       $unwind$init_simulink_io_address 0000000180033e64     c24_dsogi_pll_3ph.obj
 0002:00001e6c       $unwind$sf_c24_dsogi_pll_3ph_third_party_uses_info 0000000180033e6c     c24_dsogi_pll_3ph.obj
 0002:00001e74       $unwind$sf_c24_dsogi_pll_3ph_jit_fallback_info 0000000180033e74     c24_dsogi_pll_3ph.obj
 0002:00001e84       $unwind$sf_c24_dsogi_pll_3ph_updateBuildInfo_args_info 0000000180033e84     c24_dsogi_pll_3ph.obj
 0002:00001e8c       $unwind$sf_get_sim_state_info_c24_dsogi_pll_3ph 0000000180033e8c     c24_dsogi_pll_3ph.obj
 0002:00001e94       $unwind$sf_opaque_initialize_c24_dsogi_pll_3ph 0000000180033e94     c24_dsogi_pll_3ph.obj
 0002:00001e9c       $unwind$sf_opaque_enable_c24_dsogi_pll_3ph 0000000180033e9c     c24_dsogi_pll_3ph.obj
 0002:00001ea4       $unwind$sf_opaque_disable_c24_dsogi_pll_3ph 0000000180033ea4     c24_dsogi_pll_3ph.obj
 0002:00001eac       $unwind$sf_opaque_gateway_c24_dsogi_pll_3ph 0000000180033eac     c24_dsogi_pll_3ph.obj
 0002:00001eb4       $unwind$sf_opaque_get_sim_state_c24_dsogi_pll_3ph 0000000180033eb4     c24_dsogi_pll_3ph.obj
 0002:00001ebc       $unwind$sf_opaque_set_sim_state_c24_dsogi_pll_3ph 0000000180033ebc     c24_dsogi_pll_3ph.obj
 0002:00001ec4       $unwind$sf_opaque_cleanup_runtime_resources_c24_dsogi_pll_3ph 0000000180033ec4     c24_dsogi_pll_3ph.obj
 0002:00001ecc       $unwind$sf_opaque_mdl_start_c24_dsogi_pll_3ph 0000000180033ecc     c24_dsogi_pll_3ph.obj
 0002:00001ed4       $unwind$sf_opaque_mdl_terminate_c24_dsogi_pll_3ph 0000000180033ed4     c24_dsogi_pll_3ph.obj
 0002:00001edc       $unwind$mdlProcessParameters_c24_dsogi_pll_3ph 0000000180033edc     c24_dsogi_pll_3ph.obj
 0002:00001ee4       $unwind$sf_c24_dsogi_pll_3ph_get_post_codegen_info 0000000180033ee4     c24_dsogi_pll_3ph.obj
 0002:00001ef4       $unwind$mdlSetWorkWidths_c24_dsogi_pll_3ph 0000000180033ef4     c24_dsogi_pll_3ph.obj
 0002:00001efc       $unwind$mdlRTW_c24_dsogi_pll_3ph 0000000180033efc     c24_dsogi_pll_3ph.obj
 0002:00001f04       $unwind$mdlSetupRuntimeResources_c24_dsogi_pll_3ph 0000000180033f04     c24_dsogi_pll_3ph.obj
 0002:00001f0c       $unwind$sf_c25_dsogi_pll_3ph_get_eml_resolved_functions_info 0000000180033f0c     c25_dsogi_pll_3ph.obj
 0002:00001f14       $unwind$sf_c25_dsogi_pll_3ph_get_check_sum 0000000180033f14     c25_dsogi_pll_3ph.obj
 0002:00001f1c       $unwind$c25_dsogi_pll_3ph_method_dispatcher 0000000180033f1c     c25_dsogi_pll_3ph.obj
 0002:00001f24       $unwind$initialize_c25_dsogi_pll_3ph 0000000180033f24     c25_dsogi_pll_3ph.obj
 0002:00001f2c       $unwind$mdl_start_c25_dsogi_pll_3ph 0000000180033f2c     c25_dsogi_pll_3ph.obj
 0002:00001f34       $unwind$mdl_terminate_c25_dsogi_pll_3ph 0000000180033f34     c25_dsogi_pll_3ph.obj
 0002:00001f48       $unwind$mdl_setup_runtime_resources_c25_dsogi_pll_3ph 0000000180033f48     c25_dsogi_pll_3ph.obj
 0002:00001f50       $unwind$mdl_cleanup_runtime_resources_c25_dsogi_pll_3ph 0000000180033f50     c25_dsogi_pll_3ph.obj
 0002:00001f58       $unwind$enable_c25_dsogi_pll_3ph 0000000180033f58     c25_dsogi_pll_3ph.obj
 0002:00001f60       $unwind$disable_c25_dsogi_pll_3ph 0000000180033f60     c25_dsogi_pll_3ph.obj
 0002:00001f68       $unwind$sf_gateway_c25_dsogi_pll_3ph 0000000180033f68     c25_dsogi_pll_3ph.obj
 0002:00001f70       $unwind$c25_do_animation_call_c25_dsogi_pll_3ph 0000000180033f70     c25_dsogi_pll_3ph.obj
 0002:00001f78       $unwind$get_sim_state_c25_dsogi_pll_3ph 0000000180033f78     c25_dsogi_pll_3ph.obj
 0002:00001f80       $unwind$set_sim_state_c25_dsogi_pll_3ph 0000000180033f80     c25_dsogi_pll_3ph.obj
 0002:00001f88       $unwind$c25_emlrt_update_log_1 0000000180033f88     c25_dsogi_pll_3ph.obj
 0002:00001f90       $unwind$c25_emlrtInitVarDataTables 0000000180033f90     c25_dsogi_pll_3ph.obj
 0002:00001f98       $unwind$c25_emlrt_marshallIn 0000000180033f98     c25_dsogi_pll_3ph.obj
 0002:00001fa0       $unwind$c25_b_emlrt_marshallIn 0000000180033fa0     c25_dsogi_pll_3ph.obj
 0002:00001fa8       $unwind$c25_c_emlrt_marshallIn 0000000180033fa8     c25_dsogi_pll_3ph.obj
 0002:00001fb0       $unwind$c25_d_emlrt_marshallIn 0000000180033fb0     c25_dsogi_pll_3ph.obj
 0002:00001fb8       $unwind$c25_chart_data_browse_helper 0000000180033fb8     c25_dsogi_pll_3ph.obj
 0002:00001fc0       $unwind$init_simulink_io_address 0000000180033fc0     c25_dsogi_pll_3ph.obj
 0002:00001fc8       $unwind$sf_c25_dsogi_pll_3ph_third_party_uses_info 0000000180033fc8     c25_dsogi_pll_3ph.obj
 0002:00001fd0       $unwind$sf_c25_dsogi_pll_3ph_jit_fallback_info 0000000180033fd0     c25_dsogi_pll_3ph.obj
 0002:00001fe0       $unwind$sf_c25_dsogi_pll_3ph_updateBuildInfo_args_info 0000000180033fe0     c25_dsogi_pll_3ph.obj
 0002:00001fe8       $unwind$sf_get_sim_state_info_c25_dsogi_pll_3ph 0000000180033fe8     c25_dsogi_pll_3ph.obj
 0002:00001ff0       $unwind$sf_opaque_initialize_c25_dsogi_pll_3ph 0000000180033ff0     c25_dsogi_pll_3ph.obj
 0002:00001ff8       $unwind$sf_opaque_enable_c25_dsogi_pll_3ph 0000000180033ff8     c25_dsogi_pll_3ph.obj
 0002:00002000       $unwind$sf_opaque_disable_c25_dsogi_pll_3ph 0000000180034000     c25_dsogi_pll_3ph.obj
 0002:00002008       $unwind$sf_opaque_gateway_c25_dsogi_pll_3ph 0000000180034008     c25_dsogi_pll_3ph.obj
 0002:00002010       $unwind$sf_opaque_get_sim_state_c25_dsogi_pll_3ph 0000000180034010     c25_dsogi_pll_3ph.obj
 0002:00002018       $unwind$sf_opaque_set_sim_state_c25_dsogi_pll_3ph 0000000180034018     c25_dsogi_pll_3ph.obj
 0002:00002020       $unwind$sf_opaque_cleanup_runtime_resources_c25_dsogi_pll_3ph 0000000180034020     c25_dsogi_pll_3ph.obj
 0002:00002028       $unwind$sf_opaque_mdl_start_c25_dsogi_pll_3ph 0000000180034028     c25_dsogi_pll_3ph.obj
 0002:00002030       $unwind$sf_opaque_mdl_terminate_c25_dsogi_pll_3ph 0000000180034030     c25_dsogi_pll_3ph.obj
 0002:00002038       $unwind$mdlProcessParameters_c25_dsogi_pll_3ph 0000000180034038     c25_dsogi_pll_3ph.obj
 0002:00002040       $unwind$sf_c25_dsogi_pll_3ph_get_post_codegen_info 0000000180034040     c25_dsogi_pll_3ph.obj
 0002:00002050       $unwind$mdlSetWorkWidths_c25_dsogi_pll_3ph 0000000180034050     c25_dsogi_pll_3ph.obj
 0002:00002058       $unwind$mdlRTW_c25_dsogi_pll_3ph 0000000180034058     c25_dsogi_pll_3ph.obj
 0002:00002060       $unwind$mdlSetupRuntimeResources_c25_dsogi_pll_3ph 0000000180034060     c25_dsogi_pll_3ph.obj
 0002:00002068       $unwind$sf_c26_dsogi_pll_3ph_get_eml_resolved_functions_info 0000000180034068     c26_dsogi_pll_3ph.obj
 0002:00002070       $unwind$sf_c26_dsogi_pll_3ph_get_check_sum 0000000180034070     c26_dsogi_pll_3ph.obj
 0002:00002078       $unwind$c26_dsogi_pll_3ph_method_dispatcher 0000000180034078     c26_dsogi_pll_3ph.obj
 0002:00002080       $unwind$initialize_c26_dsogi_pll_3ph 0000000180034080     c26_dsogi_pll_3ph.obj
 0002:00002088       $unwind$mdl_start_c26_dsogi_pll_3ph 0000000180034088     c26_dsogi_pll_3ph.obj
 0002:00002090       $unwind$mdl_terminate_c26_dsogi_pll_3ph 0000000180034090     c26_dsogi_pll_3ph.obj
 0002:000020a0       $unwind$mdl_setup_runtime_resources_c26_dsogi_pll_3ph 00000001800340a0     c26_dsogi_pll_3ph.obj
 0002:000020a8       $unwind$mdl_cleanup_runtime_resources_c26_dsogi_pll_3ph 00000001800340a8     c26_dsogi_pll_3ph.obj
 0002:000020b0       $unwind$enable_c26_dsogi_pll_3ph 00000001800340b0     c26_dsogi_pll_3ph.obj
 0002:000020b8       $unwind$disable_c26_dsogi_pll_3ph 00000001800340b8     c26_dsogi_pll_3ph.obj
 0002:000020c0       $unwind$sf_gateway_c26_dsogi_pll_3ph 00000001800340c0     c26_dsogi_pll_3ph.obj
 0002:000020c8       $unwind$c26_do_animation_call_c26_dsogi_pll_3ph 00000001800340c8     c26_dsogi_pll_3ph.obj
 0002:000020d0       $unwind$get_sim_state_c26_dsogi_pll_3ph 00000001800340d0     c26_dsogi_pll_3ph.obj
 0002:000020d8       $unwind$set_sim_state_c26_dsogi_pll_3ph 00000001800340d8     c26_dsogi_pll_3ph.obj
 0002:000020e0       $unwind$c26_emlrt_update_log_1 00000001800340e0     c26_dsogi_pll_3ph.obj
 0002:000020e8       $unwind$c26_emlrtInitVarDataTables 00000001800340e8     c26_dsogi_pll_3ph.obj
 0002:000020f0       $unwind$c26_emlrt_marshallIn 00000001800340f0     c26_dsogi_pll_3ph.obj
 0002:000020f8       $unwind$c26_b_emlrt_marshallIn 00000001800340f8     c26_dsogi_pll_3ph.obj
 0002:00002100       $unwind$c26_c_emlrt_marshallIn 0000000180034100     c26_dsogi_pll_3ph.obj
 0002:00002108       $unwind$c26_d_emlrt_marshallIn 0000000180034108     c26_dsogi_pll_3ph.obj
 0002:00002110       $unwind$c26_chart_data_browse_helper 0000000180034110     c26_dsogi_pll_3ph.obj
 0002:00002118       $unwind$init_simulink_io_address 0000000180034118     c26_dsogi_pll_3ph.obj
 0002:00002120       $unwind$sf_c26_dsogi_pll_3ph_third_party_uses_info 0000000180034120     c26_dsogi_pll_3ph.obj
 0002:00002128       $unwind$sf_c26_dsogi_pll_3ph_jit_fallback_info 0000000180034128     c26_dsogi_pll_3ph.obj
 0002:00002138       $unwind$sf_c26_dsogi_pll_3ph_updateBuildInfo_args_info 0000000180034138     c26_dsogi_pll_3ph.obj
 0002:00002140       $unwind$sf_get_sim_state_info_c26_dsogi_pll_3ph 0000000180034140     c26_dsogi_pll_3ph.obj
 0002:00002148       $unwind$sf_opaque_initialize_c26_dsogi_pll_3ph 0000000180034148     c26_dsogi_pll_3ph.obj
 0002:00002150       $unwind$sf_opaque_enable_c26_dsogi_pll_3ph 0000000180034150     c26_dsogi_pll_3ph.obj
 0002:00002158       $unwind$sf_opaque_disable_c26_dsogi_pll_3ph 0000000180034158     c26_dsogi_pll_3ph.obj
 0002:00002160       $unwind$sf_opaque_gateway_c26_dsogi_pll_3ph 0000000180034160     c26_dsogi_pll_3ph.obj
 0002:00002168       $unwind$sf_opaque_get_sim_state_c26_dsogi_pll_3ph 0000000180034168     c26_dsogi_pll_3ph.obj
 0002:00002170       $unwind$sf_opaque_set_sim_state_c26_dsogi_pll_3ph 0000000180034170     c26_dsogi_pll_3ph.obj
 0002:00002178       $unwind$sf_opaque_cleanup_runtime_resources_c26_dsogi_pll_3ph 0000000180034178     c26_dsogi_pll_3ph.obj
 0002:00002180       $unwind$sf_opaque_mdl_start_c26_dsogi_pll_3ph 0000000180034180     c26_dsogi_pll_3ph.obj
 0002:00002188       $unwind$sf_opaque_mdl_terminate_c26_dsogi_pll_3ph 0000000180034188     c26_dsogi_pll_3ph.obj
 0002:00002190       $unwind$mdlProcessParameters_c26_dsogi_pll_3ph 0000000180034190     c26_dsogi_pll_3ph.obj
 0002:00002198       $unwind$sf_c26_dsogi_pll_3ph_get_post_codegen_info 0000000180034198     c26_dsogi_pll_3ph.obj
 0002:000021a8       $unwind$mdlSetWorkWidths_c26_dsogi_pll_3ph 00000001800341a8     c26_dsogi_pll_3ph.obj
 0002:000021b0       $unwind$mdlRTW_c26_dsogi_pll_3ph 00000001800341b0     c26_dsogi_pll_3ph.obj
 0002:000021b8       $unwind$mdlSetupRuntimeResources_c26_dsogi_pll_3ph 00000001800341b8     c26_dsogi_pll_3ph.obj
 0002:000021c0       $unwind$_vsnprintf_l       00000001800341c0     dsogi_pll_3ph_sfun_registry.obj
 0002:000021c8       $unwind$_vsprintf_l        00000001800341c8     dsogi_pll_3ph_sfun_registry.obj
 0002:000021d0       $unwind$sprintf            00000001800341d0     dsogi_pll_3ph_sfun_registry.obj
 0002:000021d8       $unwind$mexFunction        00000001800341d8     dsogi_pll_3ph_sfun_registry.obj
 0002:000021e8       $unwind$_ssSetInputPortDirectFeedThroughFcn 00000001800341e8     dsogi_pll_3ph_sfun_registry.obj
 0002:000021f8       $unwind$_ssSetRWorkValueFcn 00000001800341f8     dsogi_pll_3ph_sfun_registry.obj
 0002:00002200       $unwind$_ssGetRWorkValueFcn 0000000180034200     dsogi_pll_3ph_sfun_registry.obj
 0002:00002208       $unwind$_ssSetIWorkValueFcn 0000000180034208     dsogi_pll_3ph_sfun_registry.obj
 0002:00002210       $unwind$_ssGetIWorkValueFcn 0000000180034210     dsogi_pll_3ph_sfun_registry.obj
 0002:00002218       $unwind$_ssSetPWorkValueFcn 0000000180034218     dsogi_pll_3ph_sfun_registry.obj
 0002:00002220       $unwind$_ssGetPWorkValueFcn 0000000180034220     dsogi_pll_3ph_sfun_registry.obj
 0002:00002228       $unwind$_ssGetInputPortSignalFcn 0000000180034228     dsogi_pll_3ph_sfun_registry.obj
 0002:00002238       $unwind$_ssGetInputPortBufferDstPortFcn 0000000180034238     dsogi_pll_3ph_sfun_registry.obj
 0002:00002240       $unwind$_ssGetInputPortSignalPtrsFcn 0000000180034240     dsogi_pll_3ph_sfun_registry.obj
 0002:00002250       $unwind$ssGetParameterTuningCompliance 0000000180034250     dsogi_pll_3ph_sfun_registry.obj
 0002:00002258       $unwind$_ssReadInputStringFcn 0000000180034258     dsogi_pll_3ph_sfun_registry.obj
 0002:00002260       $unwind$ssGetDTypeIdFromMxArray 0000000180034260     dsogi_pll_3ph_sfun_registry.obj
 0002:00002268       $unwind$ssWriteRTWMx2dMatParam 0000000180034268     dsogi_pll_3ph_sfun_registry.obj
 0002:00002270       $unwind$ssWriteRTWMxVectParam 0000000180034270     dsogi_pll_3ph_sfun_registry.obj
 0002:00002278       $unwind$ssWriteRTWParameters 0000000180034278     dsogi_pll_3ph_sfun_registry.obj
 0002:00002280       $unwind$ssWriteRTWParamSettings 0000000180034280     dsogi_pll_3ph_sfun_registry.obj
 0002:00002288       $unwind$ssWriteRTWStr      0000000180034288     dsogi_pll_3ph_sfun_registry.obj
 0002:00002290       $unwind$ssWriteRTWWorkVect 0000000180034290     dsogi_pll_3ph_sfun_registry.obj
 0002:000022a4       $unwind$ssWarning          00000001800342a4     dsogi_pll_3ph_sfun_registry.obj
 0002:000022b8       $unwind$ssGetRootSS        00000001800342b8     dsogi_pll_3ph_sfun_registry.obj
 0002:000022c0       $unwind$ssGetParentSS      00000001800342c0     dsogi_pll_3ph_sfun_registry.obj
 0002:000022c8       $unwind$ssWriteRTWNameValuePair 00000001800342c8     dsogi_pll_3ph_sfun_registry.obj
 0002:000022d0       $unwind$_ssSetInputPortMatrixDimensions 00000001800342d0     dsogi_pll_3ph_sfun_registry.obj
 0002:000022dc       $unwind$_ssSetOutputPortMatrixDimensions 00000001800342dc     dsogi_pll_3ph_sfun_registry.obj
 0002:000022e8       $unwind$_ssSetInputPortVectorDimension 00000001800342e8     dsogi_pll_3ph_sfun_registry.obj
 0002:000022f4       $unwind$_ssSetOutputPortVectorDimension 00000001800342f4     dsogi_pll_3ph_sfun_registry.obj
 0002:00002300       $unwind$ssIsRunTimeParamTunable 0000000180034300     dsogi_pll_3ph_sfun_registry.obj
 0002:00002308       $unwind$ssGetSFuncBlockHandle 0000000180034308     dsogi_pll_3ph_sfun_registry.obj
 0002:00002310       $unwind$_ssGetCallSystemNumFcnCallDestinations 0000000180034310     dsogi_pll_3ph_sfun_registry.obj
 0002:00002318       $unwind$_ssGetCurrentInputPortWidth 0000000180034318     dsogi_pll_3ph_sfun_registry.obj
 0002:00002320       $unwind$_ssGetCurrentOutputPortWidth 0000000180034320     dsogi_pll_3ph_sfun_registry.obj
 0002:00002328       $unwind$ssGetIsZeroCrossControlDisabled 0000000180034328     dsogi_pll_3ph_sfun_registry.obj
 0002:00002330       $unwind$ssSetIsInputPortUsedForContZcSignal 0000000180034330     dsogi_pll_3ph_sfun_registry.obj
 0002:00002338       $unwind$ssSetZcSignalIsZcElementDisc 0000000180034338     dsogi_pll_3ph_sfun_registry.obj
 0002:00002348       $unwind$ssSetZcSignalName  0000000180034348     dsogi_pll_3ph_sfun_registry.obj
 0002:00002350       $unwind$ssSetZcSignalWidth 0000000180034350     dsogi_pll_3ph_sfun_registry.obj
 0002:00002358       $unwind$ssSetZcSignalZcEventType 0000000180034358     dsogi_pll_3ph_sfun_registry.obj
 0002:00002360       $unwind$ssSetZcSignalType  0000000180034360     dsogi_pll_3ph_sfun_registry.obj
 0002:00002368       $unwind$ssSetZcSignalZcTol 0000000180034368     dsogi_pll_3ph_sfun_registry.obj
 0002:00002370       $unwind$ssSetZcSignalNeedsEventNotification 0000000180034370     dsogi_pll_3ph_sfun_registry.obj
 0002:00002378       $unwind$ssCreateAndAddZcSignalInfo 0000000180034378     dsogi_pll_3ph_sfun_registry.obj
 0002:00002380       $unwind$ssCloneAndAddZcSignalInfo 0000000180034380     dsogi_pll_3ph_sfun_registry.obj
 0002:00002388       $unwind$ssGetNumZcSignals  0000000180034388     dsogi_pll_3ph_sfun_registry.obj
 0002:00002390       $unwind$ssGetZcSignalVector 0000000180034390     dsogi_pll_3ph_sfun_registry.obj
 0002:00002398       $unwind$ssGetZcSignalName  0000000180034398     dsogi_pll_3ph_sfun_registry.obj
 0002:000023a0       $unwind$ssGetZcSignalWidth 00000001800343a0     dsogi_pll_3ph_sfun_registry.obj
 0002:000023a8       $unwind$ssGetZcSignalZcEventType 00000001800343a8     dsogi_pll_3ph_sfun_registry.obj
 0002:000023b0       $unwind$ssGetZcSignalZcEvents 00000001800343b0     dsogi_pll_3ph_sfun_registry.obj
 0002:000023b8       $unwind$ssGetZcSignalType  00000001800343b8     dsogi_pll_3ph_sfun_registry.obj
 0002:000023c0       $unwind$ssGetZcSignalZcTol 00000001800343c0     dsogi_pll_3ph_sfun_registry.obj
 0002:000023c8       $unwind$ssGetZcSignalNeedsEventNotification 00000001800343c8     dsogi_pll_3ph_sfun_registry.obj
 0002:000023d0       $unwind$ssGetZcSignalIsZcElementDisc 00000001800343d0     dsogi_pll_3ph_sfun_registry.obj
 0002:000023e0       $unwind$ssGetIsInputPortElementContinuous 00000001800343e0     dsogi_pll_3ph_sfun_registry.obj
 0002:000023f0       $unwind$_ssGetAbsTol       00000001800343f0     dsogi_pll_3ph_sfun_registry.obj
 0002:000023f8       $unwind$_ssSetInputPortReusableFcn 00000001800343f8     dsogi_pll_3ph_sfun_registry.obj
 0002:00002400       $unwind$_ssSetOutputPortReusableFcn 0000000180034400     dsogi_pll_3ph_sfun_registry.obj
 0002:00002408       $unwind$_ssSetSymbolicDimsSupport 0000000180034408     dsogi_pll_3ph_sfun_registry.obj
 0002:00002410       $unwind$_ssRegisterSymbolicDimsExpr 0000000180034410     dsogi_pll_3ph_sfun_registry.obj
 0002:00002418       $unwind$_ssRegisterSymbolicDimsMATLABExpr 0000000180034418     dsogi_pll_3ph_sfun_registry.obj
 0002:00002420       $unwind$_ssRegisterSymbolicDims 0000000180034420     dsogi_pll_3ph_sfun_registry.obj
 0002:00002428       $unwind$_ssRegisterSymbolicDimsString 0000000180034428     dsogi_pll_3ph_sfun_registry.obj
 0002:00002430       $unwind$_ssRegisterSymbolicDimsIntValue 0000000180034430     dsogi_pll_3ph_sfun_registry.obj
 0002:00002438       $unwind$_ssRegisterSymbolicEqualRelation 0000000180034438     dsogi_pll_3ph_sfun_registry.obj
 0002:00002440       $unwind$_ssRegisterSymbolicEqualValue 0000000180034440     dsogi_pll_3ph_sfun_registry.obj
 0002:00002448       $unwind$_ssAmendLeadingSymbolicDims 0000000180034448     dsogi_pll_3ph_sfun_registry.obj
 0002:00002450       $unwind$_ssAmendTrailingSymbolicDims 0000000180034450     dsogi_pll_3ph_sfun_registry.obj
 0002:00002458       $unwind$_ssRegisterSymbolicDimsPlus 0000000180034458     dsogi_pll_3ph_sfun_registry.obj
 0002:00002460       $unwind$_ssRegisterSymbolicDimsMinus 0000000180034460     dsogi_pll_3ph_sfun_registry.obj
 0002:00002468       $unwind$_ssRegisterSymbolicDimsMultiply 0000000180034468     dsogi_pll_3ph_sfun_registry.obj
 0002:00002470       $unwind$_ssRegisterSymbolicDimsDivide 0000000180034470     dsogi_pll_3ph_sfun_registry.obj
 0002:00002478       $unwind$_ssGetNumSymbolicDims 0000000180034478     dsogi_pll_3ph_sfun_registry.obj
 0002:00002480       $unwind$_ssGetSymbolicDim  0000000180034480     dsogi_pll_3ph_sfun_registry.obj
 0002:00002488       $unwind$_ssSetInputPortSymbolicDimsId 0000000180034488     dsogi_pll_3ph_sfun_registry.obj
 0002:00002490       $unwind$_ssGetCompInputPortSymbolicDimsId 0000000180034490     dsogi_pll_3ph_sfun_registry.obj
 0002:00002498       $unwind$_ssSetCompInputPortSymbolicDimsId 0000000180034498     dsogi_pll_3ph_sfun_registry.obj
 0002:000024a0       $unwind$_ssSetOutputPortSymbolicDimsId 00000001800344a0     dsogi_pll_3ph_sfun_registry.obj
 0002:000024a8       $unwind$_ssGetCompOutputPortSymbolicDimsId 00000001800344a8     dsogi_pll_3ph_sfun_registry.obj
 0002:000024b0       $unwind$_ssSetCompOutputPortSymbolicDimsId 00000001800344b0     dsogi_pll_3ph_sfun_registry.obj
 0002:000024b8       $unwind$_ssGetDWorkSymbolicDimsId 00000001800344b8     dsogi_pll_3ph_sfun_registry.obj
 0002:000024c0       $unwind$_ssSetDWorkSymbolicDimsId 00000001800344c0     dsogi_pll_3ph_sfun_registry.obj
 0002:000024c8       $unwind$_ssGetCompDWorkSymbolicDimsId 00000001800344c8     dsogi_pll_3ph_sfun_registry.obj
 0002:000024d0       $unwind$_ssSetCompDWorkSymbolicDimsId 00000001800344d0     dsogi_pll_3ph_sfun_registry.obj
 0002:000024d8       $unwind$_ssCreateSLCGStringBuffer 00000001800344d8     dsogi_pll_3ph_sfun_registry.obj
 0002:000024e0       $unwind$_ssAddToSLCGStringBuffer 00000001800344e0     dsogi_pll_3ph_sfun_registry.obj
 0002:000024e8       $unwind$_ssGetPointerContainedData 00000001800344e8     dsogi_pll_3ph_sfun_registry.obj
 0002:000024f0       $unwind$_ssGetPointerContainedDataWidth 00000001800344f0     dsogi_pll_3ph_sfun_registry.obj
 0002:000024f8       $unwind$_ssRegisterDynamicArrayDataTypeFcn 00000001800344f8     dsogi_pll_3ph_sfun_registry.obj
 0002:00002500       $unwind$_ssGetDynamicArrayContainedDataCurrentWidthFcn 0000000180034500     dsogi_pll_3ph_sfun_registry.obj
 0002:00002508       $unwind$_ssGetDynamicArrayContainedDataFcn 0000000180034508     dsogi_pll_3ph_sfun_registry.obj
 0002:00002510       $unwind$_ssGetInputPortDynamicArrayDataFcn 0000000180034510     dsogi_pll_3ph_sfun_registry.obj
 0002:00002518       $unwind$_ssGetOutputPortDynamicArrayDataFcn 0000000180034518     dsogi_pll_3ph_sfun_registry.obj
 0002:00002520       $unwind$_ssGetInputPortDynamicArrayContainedDataFcn 0000000180034520     dsogi_pll_3ph_sfun_registry.obj
 0002:00002528       $unwind$_ssGetOutputPortDynamicArrayContainedDataFcn 0000000180034528     dsogi_pll_3ph_sfun_registry.obj
 0002:00002530       $unwind$_ssGetDynamicArrayDWorkContainedDataFcn 0000000180034530     dsogi_pll_3ph_sfun_registry.obj
 0002:00002538       $unwind$sf_process_check_sum_call 0000000180034538     dsogi_pll_3ph_sfun_registry.obj
 0002:00002540       $unwind$sf_process_get_third_party_uses_info_call 0000000180034540     dsogi_pll_3ph_sfun_registry.obj
 0002:00002550       $unwind$sf_process_get_jit_fallback_info_call 0000000180034550     dsogi_pll_3ph_sfun_registry.obj
 0002:00002560       $unwind$sf_process_get_post_codegen_info_call 0000000180034560     dsogi_pll_3ph_sfun_registry.obj
 0002:00002570       $unwind$sf_process_get_updateBuildInfo_args_info_call 0000000180034570     dsogi_pll_3ph_sfun_registry.obj
 0002:00002580       $unwind$sf_process_get_eml_resolved_functions_info_call 0000000180034580     dsogi_pll_3ph_sfun_registry.obj
 0002:00002590       $unwind$sf_mex_unlock_call 0000000180034590     dsogi_pll_3ph_sfun_registry.obj
 0002:000025a0       $unwind$ProcessMexSfunctionCmdLineCall 00000001800345a0     dsogi_pll_3ph_sfun_registry.obj
 0002:000025a8       $unwind$sf_machine_global_initializer_called 00000001800345a8     dsogi_pll_3ph_sfun_registry.obj
 0002:000025b0       $unwind$sf_machine_global_method_dispatcher 00000001800345b0     dsogi_pll_3ph_sfun_registry.obj
 0002:000025b8       $unwind$sf_machine_global_terminator 00000001800345b8     dsogi_pll_3ph_sfun_registry.obj
 0002:000025c0       $unwind$sf_register_machine_exported_symbols 00000001800345c0     dsogi_pll_3ph_sfun_registry.obj
 0002:000025c8       $unwind$sf_machine_global_initializer 00000001800345c8     dsogi_pll_3ph_sfun_registry.obj
 0002:000025d0       $unwind$mdlGetSimState     00000001800345d0     dsogi_pll_3ph_sfun_registry.obj
 0002:000025d8       $unwind$mdlSetSimState     00000001800345d8     dsogi_pll_3ph_sfun_registry.obj
 0002:000025e0       $unwind$mdlSetWorkWidths   00000001800345e0     dsogi_pll_3ph_sfun_registry.obj
 0002:000025e8       $unwind$mdlProcessParameters 00000001800345e8     dsogi_pll_3ph_sfun_registry.obj
 0002:000025f0       $unwind$mdl_setup_runtime_resources_processing 00000001800345f0     dsogi_pll_3ph_sfun_registry.obj
 0002:000025f8       $unwind$mdlSetupRuntimeResources 00000001800345f8     dsogi_pll_3ph_sfun_registry.obj
 0002:00002600       $unwind$mdl_cleanup_runtime_resources_processing 0000000180034600     dsogi_pll_3ph_sfun_registry.obj
 0002:00002608       $unwind$mdlCleanupRuntimeResources 0000000180034608     dsogi_pll_3ph_sfun_registry.obj
 0002:00002610       $unwind$mdl_start_processing 0000000180034610     dsogi_pll_3ph_sfun_registry.obj
 0002:00002618       $unwind$mdlStart           0000000180034618     dsogi_pll_3ph_sfun_registry.obj
 0002:00002620       $unwind$mdl_terminate_processing 0000000180034620     dsogi_pll_3ph_sfun_registry.obj
 0002:00002628       $unwind$mdlTerminate       0000000180034628     dsogi_pll_3ph_sfun_registry.obj
 0002:00002630       $unwind$mdlInitializeSizes 0000000180034630     dsogi_pll_3ph_sfun_registry.obj
 0002:00002638       $unwind$mdlInitializeSampleTimes 0000000180034638     dsogi_pll_3ph_sfun_registry.obj
 0002:00002640       $unwind$mdl_outputs_continuous_legacy 0000000180034640     dsogi_pll_3ph_sfun_registry.obj
 0002:00002648       $unwind$mdl_outputs_processing 0000000180034648     dsogi_pll_3ph_sfun_registry.obj
 0002:00002650       $unwind$mdl_zeroCrossings_processing 0000000180034650     dsogi_pll_3ph_sfun_registry.obj
 0002:00002658       $unwind$mdlZeroCrossings   0000000180034658     dsogi_pll_3ph_sfun_registry.obj
 0002:00002660       $unwind$mdl_derivatives_processing 0000000180034660     dsogi_pll_3ph_sfun_registry.obj
 0002:00002668       $unwind$mdlDerivatives     0000000180034668     dsogi_pll_3ph_sfun_registry.obj
 0002:00002670       $unwind$mdl_initialize_conditions_processing 0000000180034670     dsogi_pll_3ph_sfun_registry.obj
 0002:00002678       $unwind$mdlInitializeConditions 0000000180034678     dsogi_pll_3ph_sfun_registry.obj
 0002:00002680       $unwind$mdl_ext_mode_exec_processing 0000000180034680     dsogi_pll_3ph_sfun_registry.obj
 0002:00002688       $unwind$mdlExtModeExec     0000000180034688     dsogi_pll_3ph_sfun_registry.obj
 0002:00002690       $unwind$mdlRTW             0000000180034690     dsogi_pll_3ph_sfun_registry.obj
 0002:00002698       $unwind$mdl_enable_processing 0000000180034698     dsogi_pll_3ph_sfun_registry.obj
 0002:000026a0       $unwind$mdlEnable          00000001800346a0     dsogi_pll_3ph_sfun_registry.obj
 0002:000026a8       $unwind$mdl_disable_processing 00000001800346a8     dsogi_pll_3ph_sfun_registry.obj
 0002:000026b0       $unwind$mdlDisable         00000001800346b0     dsogi_pll_3ph_sfun_registry.obj
 0002:000026b8       $unwind$mdlOutputs         00000001800346b8     dsogi_pll_3ph_sfun_registry.obj
 0002:000026c0       $unwind$mdl_update_processing 00000001800346c0     dsogi_pll_3ph_sfun_registry.obj
 0002:000026c8       $unwind$mdlUpdate          00000001800346c8     dsogi_pll_3ph_sfun_registry.obj
 0002:000026d0       $unwind$ProcessMexSfunctionEveryCall 00000001800346d0     dsogi_pll_3ph_sfun_registry.obj
 0002:000026d8       $unwind$_RegNumInputPortsCB 00000001800346d8     dsogi_pll_3ph_sfun_registry.obj
 0002:000026e0       $unwind$_RegNumOutputPortsCB 00000001800346e0     dsogi_pll_3ph_sfun_registry.obj
 0002:000026e8       $unwind$_CreateSimStruct   00000001800346e8     dsogi_pll_3ph_sfun_registry.obj
 0002:000026f0       $unwind$_ProcessMexSfunctionCmdLineCall 00000001800346f0     dsogi_pll_3ph_sfun_registry.obj
 0002:00002700       $unwind$ReportIndexOutOfBoundsError 0000000180034700     dsogi_pll_3ph_sfun_registry.obj
 0002:00002710       $unwind$getBitfieldFromFloat 0000000180034710     half_type.obj
 0002:00002718       $unwind$getFloatFromBitfield 0000000180034718     half_type.obj
 0002:00002720       $unwind$getHalfFromBitfield 0000000180034720     half_type.obj
 0002:00002728       $unwind$halfToFloat        0000000180034728     half_type.obj
 0002:00002730       $unwind$halfToDouble       0000000180034730     half_type.obj
 0002:00002738       $unwind$floatToHalf        0000000180034738     half_type.obj
 0002:00002740       $unwind$doubleToHalf       0000000180034740     half_type.obj
 0002:00002748       $unwind$__report_securityfailure 0000000180034748     MSVCRT:gs_report.obj
 0002:00002750       $unwind$__report_securityfailureEx 0000000180034750     MSVCRT:gs_report.obj
 0002:00002758       $unwind$__report_rangecheckfailure 0000000180034758     MSVCRT:gs_report.obj
 0002:00002760       $unwind$__report_gsfailure 0000000180034760     MSVCRT:gs_report.obj
 0002:00002768       $unwind$capture_current_context 0000000180034768     MSVCRT:gs_report.obj
 0002:00002774       $unwind$capture_previous_context 0000000180034774     MSVCRT:gs_report.obj
 0002:00002780       $unwind$__raise_securityfailure 0000000180034780     MSVCRT:gs_report.obj
 0002:00002788       $unwind$__GSHandlerCheckCommon 0000000180034788     MSVCRT:gshandler.obj
 0002:00002790       $unwind$__GSHandlerCheck   0000000180034790     MSVCRT:gshandler.obj
 0002:00002798       $xdatasym                  0000000180034798     MSVCRT:amdsecgs.obj
 0002:0000279c       $unwind$?dllmain_crt_process_attach@@YAHQEAUHINSTANCE__@@QEAX@Z 000000018003479c     MSVCRT:dll_dllmain.obj
 0002:000027d8       $unwind$?fin$0@?0??dllmain_crt_process_attach@@YAHQEAUHINSTANCE__@@QEAX@Z@4HA 00000001800347d8     MSVCRT:dll_dllmain.obj
 0002:000027e0       $unwind$?dllmain_crt_process_detach@@YAH_N@Z 00000001800347e0     MSVCRT:dll_dllmain.obj
 0002:00002834       $unwind$?fin$0@?0??dllmain_crt_process_detach@@YAH_N@Z@4HA 0000000180034834     MSVCRT:dll_dllmain.obj
 0002:0000283c       $unwind$?fin$1@?0??dllmain_crt_process_detach@@YAH_N@Z@4HA 000000018003483c     MSVCRT:dll_dllmain.obj
 0002:00002844       $unwind$?dllmain_crt_dispatch@@YAHQEAUHINSTANCE__@@KQEAX@Z 0000000180034844     MSVCRT:dll_dllmain.obj
 0002:0000284c       $unwind$?dllmain_dispatch@@YAHQEAUHINSTANCE__@@KQEAX@Z 000000018003484c     MSVCRT:dll_dllmain.obj
 0002:00002874       $unwind$?filt$0@?0??dllmain_dispatch@@YAHQEAUHINSTANCE__@@KQEAX@Z@4HA 0000000180034874     MSVCRT:dll_dllmain.obj
 0002:0000287c       $unwind$_DllMainCRTStartup 000000018003487c     MSVCRT:dll_dllmain.obj
 0002:0000288c       $unwind$__security_init_cookie 000000018003488c     MSVCRT:gs_support.obj
 0002:00002898       $unwind$__get_entropy      0000000180034898     MSVCRT:gs_support.obj
 0002:000028a0       $unwind$DllMain            00000001800348a0     MSVCRT:dll_dllmain_stub.obj
 0002:000028a8       $unwind$__scrt_initialize_default_local_stdio_options 00000001800348a8     MSVCRT:default_local_stdio_options.obj
 0002:000028b0       $unwind$atexit             00000001800348b0     MSVCRT:utility.obj
 0002:000028b8       $unwind$_onexit            00000001800348b8     MSVCRT:utility.obj
 0002:000028c0       $unwind$__scrt_is_nonwritable_in_current_image 00000001800348c0     MSVCRT:utility.obj
 0002:000028e0       $unwind$__scrt_is_nonwritable_in_current_image$filt$0 00000001800348e0     MSVCRT:utility.obj
 0002:000028e8       $unwind$__scrt_acquire_startup_lock 00000001800348e8     MSVCRT:utility.obj
 0002:000028f0       $unwind$__scrt_release_startup_lock 00000001800348f0     MSVCRT:utility.obj
 0002:000028f8       $unwind$__scrt_initialize_crt 00000001800348f8     MSVCRT:utility.obj
 0002:00002900       $unwind$__scrt_uninitialize_crt 0000000180034900     MSVCRT:utility.obj
 0002:00002908       $unwind$__scrt_initialize_onexit_tables 0000000180034908     MSVCRT:utility.obj
 0002:00002910       $unwind$__scrt_dllmain_exception_filter 0000000180034910     MSVCRT:utility.obj
 0002:00002924       $unwind$__scrt_dllmain_before_initialize_c 0000000180034924     MSVCRT:utility.obj
 0002:0000292c       $unwind$__scrt_dllmain_after_initialize_c 000000018003492c     MSVCRT:utility.obj
 0002:00002934       $unwind$__scrt_dllmain_uninitialize_c 0000000180034934     MSVCRT:utility.obj
 0002:0000293c       $unwind$__scrt_dllmain_uninitialize_critical 000000018003493c     MSVCRT:utility.obj
 0002:00002944       $unwind$__scrt_dllmain_crt_thread_attach 0000000180034944     MSVCRT:utility.obj
 0002:0000294c       $unwind$__scrt_dllmain_crt_thread_detach 000000018003494c     MSVCRT:utility.obj
 0002:00002954       $unwind$?configure_argv@__scrt_narrow_argv_policy@@SAHXZ 0000000180034954     MSVCRT:utility.obj
 0002:0000295c       $unwind$__scrt_get_show_window_mode 000000018003495c     MSVCRT:utility_desktop.obj
 0002:00002964       $unwind$__scrt_is_managed_app 0000000180034964     MSVCRT:utility_desktop.obj
 0002:0000296c       $unwind$__scrt_fastfail    000000018003496c     MSVCRT:utility_desktop.obj
 0002:0000297c       $unwind$__scrt_unhandled_exception_filter 000000018003497c     MSVCRT:utility_desktop.obj
 0002:00002988       $unwind$_RTC_Initialize    0000000180034988     MSVCRT:initsect.obj
 0002:00002994       $unwind$_RTC_Terminate     0000000180034994     MSVCRT:initsect.obj
 0002:000029a0       $unwind$__castguard_check_failure_os_handled_wrapper 00000001800349a0     MSVCRT:guard_support.obj
 0002:000029a8       $unwind$__castguard_check_failure_user_handled_wrapper 00000001800349a8     MSVCRT:guard_support.obj
 0002:000029b0       $unwind$__castguard_check_failure_os_handled 00000001800349b0     MSVCRT:guard_support.obj
 0002:000029b8       $unwind$__castguard_check_failure_user_handled 00000001800349b8     MSVCRT:guard_support.obj
 0002:000029c0       $unwind$__castguard_slow_path_check_os_handled 00000001800349c0     MSVCRT:guard_support.obj
 0002:000029c8       $unwind$__castguard_slow_path_check_user_handled 00000001800349c8     MSVCRT:guard_support.obj
 0002:000029d0       $unwind$__isa_available_init 00000001800349d0     MSVCRT:cpu_disp.obj
 0002:000029e0       $xdatasym                  00000001800349e0     MSVCRT:guard_dispatch.obj
 0002:000029e8       $xdatasym                  00000001800349e8     MSVCRT:guard_xfg_dispatch.obj
 0002:000029f0       .edata                     00000001800349f0     dsogi_pll_3ph_sfun.exp
 0002:00002a18       rgpv                       0000000180034a18     dsogi_pll_3ph_sfun.exp
 0002:00002a20       rgszName                   0000000180034a20     dsogi_pll_3ph_sfun.exp
 0002:00002a28       rgwOrd                     0000000180034a28     dsogi_pll_3ph_sfun.exp
 0002:00002a2c       szName                     0000000180034a2c     dsogi_pll_3ph_sfun.exp
 0002:00002a46       $N00001                    0000000180034a46     dsogi_pll_3ph_sfun.exp
 0002:00002a52       $N00002                    0000000180034a52     dsogi_pll_3ph_sfun.exp
 0002:0000341a       .idata$6                   000000018003541a     sf_runtime:sf_runtime.dll
 0002:000035a4       .idata$6                   00000001800355a4     libmx:libmx.dll
 0002:00003638       .idata$6                   0000000180035638     libmex:libmex.dll
 0002:0000365a       .idata$6                   000000018003565a     libut:libut.dll
 0002:000036a6       .idata$6                   00000001800356a6     libmwmathutil:libmwmathutil.dll
 0002:00003712       .idata$6                   0000000180035712     libemlrt:libemlrt.dll
 0002:00003890       .idata$6                   0000000180035890     libcovrt:libcovrt.dll
 0002:00003a2a       .idata$6                   0000000180035a2a     kernel32:KERNEL32.dll
 0002:00003ab8       .idata$6                   0000000180035ab8     vcruntime:VCRUNTIME140.dll
 0002:00003c0e       .idata$6                   0000000180035c0e     ucrt:api-ms-win-crt-string-l1-1-0.dll
 0002:00003c30       .idata$6                   0000000180035c30     ucrt:api-ms-win-crt-math-l1-1-0.dll
 0002:00003c50       .idata$6                   0000000180035c50     ucrt:api-ms-win-crt-stdio-l1-1-0.dll
 0002:00003c70       .idata$6                   0000000180035c70     ucrt:api-ms-win-crt-heap-l1-1-0.dll
 0002:00003c90       .idata$6                   0000000180035c90     ucrt:api-ms-win-crt-runtime-l1-1-0.dll
 0003:00000000       $SG27522                   0000000180036000     dsogi_pll_3ph_sfun.obj
 0003:00000018       $SG27527                   0000000180036018     dsogi_pll_3ph_sfun.obj
 0003:00000020       $SG27530                   0000000180036020     dsogi_pll_3ph_sfun.obj
 0003:00000028       $SG27547                   0000000180036028     dsogi_pll_3ph_sfun.obj
 0003:00000030       $SG27625                   0000000180036030     dsogi_pll_3ph_sfun.obj
 0003:00000050       $SG27628                   0000000180036050     dsogi_pll_3ph_sfun.obj
 0003:00000068       $SG27631                   0000000180036068     dsogi_pll_3ph_sfun.obj
 0003:00000080       $SG27634                   0000000180036080     dsogi_pll_3ph_sfun.obj
 0003:00000098       $SG27637                   0000000180036098     dsogi_pll_3ph_sfun.obj
 0003:000000b0       $SG27640                   00000001800360b0     dsogi_pll_3ph_sfun.obj
 0003:000000c8       $SG27643                   00000001800360c8     dsogi_pll_3ph_sfun.obj
 0003:000000e0       $SG27646                   00000001800360e0     dsogi_pll_3ph_sfun.obj
 0003:000000f8       $SG27649                   00000001800360f8     dsogi_pll_3ph_sfun.obj
 0003:00000110       $SG27652                   0000000180036110     dsogi_pll_3ph_sfun.obj
 0003:00000128       $SG27655                   0000000180036128     dsogi_pll_3ph_sfun.obj
 0003:00000140       $SG27658                   0000000180036140     dsogi_pll_3ph_sfun.obj
 0003:00000158       $SG27661                   0000000180036158     dsogi_pll_3ph_sfun.obj
 0003:00000170       $SG27664                   0000000180036170     dsogi_pll_3ph_sfun.obj
 0003:00000188       $SG27717                   0000000180036188     dsogi_pll_3ph_sfun.obj
 0003:000001a8       $SG27720                   00000001800361a8     dsogi_pll_3ph_sfun.obj
 0003:000001c0       $SG27723                   00000001800361c0     dsogi_pll_3ph_sfun.obj
 0003:000001d8       $SG27726                   00000001800361d8     dsogi_pll_3ph_sfun.obj
 0003:000001f0       $SG27729                   00000001800361f0     dsogi_pll_3ph_sfun.obj
 0003:00000208       $SG27732                   0000000180036208     dsogi_pll_3ph_sfun.obj
 0003:00000220       $SG27735                   0000000180036220     dsogi_pll_3ph_sfun.obj
 0003:00000238       $SG27738                   0000000180036238     dsogi_pll_3ph_sfun.obj
 0003:00000250       $SG27741                   0000000180036250     dsogi_pll_3ph_sfun.obj
 0003:00000268       $SG27744                   0000000180036268     dsogi_pll_3ph_sfun.obj
 0003:00000280       $SG27747                   0000000180036280     dsogi_pll_3ph_sfun.obj
 0003:00000298       $SG27750                   0000000180036298     dsogi_pll_3ph_sfun.obj
 0003:000002b0       $SG27753                   00000001800362b0     dsogi_pll_3ph_sfun.obj
 0003:000002c8       $SG27756                   00000001800362c8     dsogi_pll_3ph_sfun.obj
 0003:000002e0       $SG27809                   00000001800362e0     dsogi_pll_3ph_sfun.obj
 0003:000002f8       $SG27812                   00000001800362f8     dsogi_pll_3ph_sfun.obj
 0003:00000310       $SG27815                   0000000180036310     dsogi_pll_3ph_sfun.obj
 0003:00000328       $SG27818                   0000000180036328     dsogi_pll_3ph_sfun.obj
 0003:00000340       $SG27821                   0000000180036340     dsogi_pll_3ph_sfun.obj
 0003:00000358       $SG27824                   0000000180036358     dsogi_pll_3ph_sfun.obj
 0003:00000370       $SG27827                   0000000180036370     dsogi_pll_3ph_sfun.obj
 0003:00000388       $SG27830                   0000000180036388     dsogi_pll_3ph_sfun.obj
 0003:000003a0       $SG27833                   00000001800363a0     dsogi_pll_3ph_sfun.obj
 0003:000003b8       $SG27836                   00000001800363b8     dsogi_pll_3ph_sfun.obj
 0003:000003d0       $SG27839                   00000001800363d0     dsogi_pll_3ph_sfun.obj
 0003:000003e8       $SG27842                   00000001800363e8     dsogi_pll_3ph_sfun.obj
 0003:00000400       $SG27845                   0000000180036400     dsogi_pll_3ph_sfun.obj
 0003:00000418       $SG27848                   0000000180036418     dsogi_pll_3ph_sfun.obj
 0003:00000430       $SG27914                   0000000180036430     dsogi_pll_3ph_sfun.obj
 0003:00000448       $SG27917                   0000000180036448     dsogi_pll_3ph_sfun.obj
 0003:00000460       $SG27920                   0000000180036460     dsogi_pll_3ph_sfun.obj
 0003:00000478       $SG27923                   0000000180036478     dsogi_pll_3ph_sfun.obj
 0003:00000490       $SG27926                   0000000180036490     dsogi_pll_3ph_sfun.obj
 0003:000004a8       $SG27929                   00000001800364a8     dsogi_pll_3ph_sfun.obj
 0003:000004c0       $SG27932                   00000001800364c0     dsogi_pll_3ph_sfun.obj
 0003:000004d8       $SG27935                   00000001800364d8     dsogi_pll_3ph_sfun.obj
 0003:000004f0       $SG27938                   00000001800364f0     dsogi_pll_3ph_sfun.obj
 0003:00000508       $SG27941                   0000000180036508     dsogi_pll_3ph_sfun.obj
 0003:00000520       $SG27944                   0000000180036520     dsogi_pll_3ph_sfun.obj
 0003:00000538       $SG27947                   0000000180036538     dsogi_pll_3ph_sfun.obj
 0003:00000550       $SG27950                   0000000180036550     dsogi_pll_3ph_sfun.obj
 0003:00000568       $SG27953                   0000000180036568     dsogi_pll_3ph_sfun.obj
 0003:00000580       $SG28006                   0000000180036580     dsogi_pll_3ph_sfun.obj
 0003:000005a0       $SG28009                   00000001800365a0     dsogi_pll_3ph_sfun.obj
 0003:000005b8       $SG28012                   00000001800365b8     dsogi_pll_3ph_sfun.obj
 0003:000005d0       $SG28015                   00000001800365d0     dsogi_pll_3ph_sfun.obj
 0003:000005e8       $SG28018                   00000001800365e8     dsogi_pll_3ph_sfun.obj
 0003:00000600       $SG28021                   0000000180036600     dsogi_pll_3ph_sfun.obj
 0003:00000618       $SG28024                   0000000180036618     dsogi_pll_3ph_sfun.obj
 0003:00000630       $SG28027                   0000000180036630     dsogi_pll_3ph_sfun.obj
 0003:00000648       $SG28030                   0000000180036648     dsogi_pll_3ph_sfun.obj
 0003:00000660       $SG28033                   0000000180036660     dsogi_pll_3ph_sfun.obj
 0003:00000678       $SG28036                   0000000180036678     dsogi_pll_3ph_sfun.obj
 0003:00000690       $SG28039                   0000000180036690     dsogi_pll_3ph_sfun.obj
 0003:000006a8       $SG28042                   00000001800366a8     dsogi_pll_3ph_sfun.obj
 0003:000006c0       $SG28045                   00000001800366c0     dsogi_pll_3ph_sfun.obj
 0003:000006d8       $SG28071                   00000001800366d8     dsogi_pll_3ph_sfun.obj
 0003:000006e8       $SG28072                   00000001800366e8     dsogi_pll_3ph_sfun.obj
 0003:00000700       $SG27003                   0000000180036700     c1_dsogi_pll_3ph.obj
 0003:00000718       $SG27005                   0000000180036718     c1_dsogi_pll_3ph.obj
 0003:00000734       $SG27089                   0000000180036734     c1_dsogi_pll_3ph.obj
 0003:00000738       $SG27009                   0000000180036738     c1_dsogi_pll_3ph.obj
 0003:00000748       $SG27011                   0000000180036748     c1_dsogi_pll_3ph.obj
 0003:00000760       $SG27012                   0000000180036760     c1_dsogi_pll_3ph.obj
 0003:00000778       $SG27025                   0000000180036778     c1_dsogi_pll_3ph.obj
 0003:00000788       $SG27090                   0000000180036788     c1_dsogi_pll_3ph.obj
 0003:0000078c       $SG27091                   000000018003678c     c1_dsogi_pll_3ph.obj
 0003:00000790       $SG27098                   0000000180036790     c1_dsogi_pll_3ph.obj
 0003:000007a0       $SG27099                   00000001800367a0     c1_dsogi_pll_3ph.obj
 0003:000007b0       $SG27100                   00000001800367b0     c1_dsogi_pll_3ph.obj
 0003:000007d0       $SG27161                   00000001800367d0     c1_dsogi_pll_3ph.obj
 0003:000007e0       $SG27232                   00000001800367e0     c1_dsogi_pll_3ph.obj
 0003:000007e8       $SG27234                   00000001800367e8     c1_dsogi_pll_3ph.obj
 0003:000007f0       $SG27236                   00000001800367f0     c1_dsogi_pll_3ph.obj
 0003:000007f8       $SG27238                   00000001800367f8     c1_dsogi_pll_3ph.obj
 0003:00000800       $SG27240                   0000000180036800     c1_dsogi_pll_3ph.obj
 0003:00000808       $SG27242                   0000000180036808     c1_dsogi_pll_3ph.obj
 0003:00000810       $SG27244                   0000000180036810     c1_dsogi_pll_3ph.obj
 0003:00000818       $SG27246                   0000000180036818     c1_dsogi_pll_3ph.obj
 0003:00000820       $SG27248                   0000000180036820     c1_dsogi_pll_3ph.obj
 0003:00000828       $SG27250                   0000000180036828     c1_dsogi_pll_3ph.obj
 0003:00000830       $SG27296                   0000000180036830     c1_dsogi_pll_3ph.obj
 0003:00000840       $SG27298                   0000000180036840     c1_dsogi_pll_3ph.obj
 0003:00000850       $SG27300                   0000000180036850     c1_dsogi_pll_3ph.obj
 0003:00000868       $SG27302                   0000000180036868     c1_dsogi_pll_3ph.obj
 0003:00000880       $SG27304                   0000000180036880     c1_dsogi_pll_3ph.obj
 0003:00000894       $SG27305                   0000000180036894     c1_dsogi_pll_3ph.obj
 0003:000008a0       $SG27306                   00000001800368a0     c1_dsogi_pll_3ph.obj
 0003:000008b8       $SG27309                   00000001800368b8     c1_dsogi_pll_3ph.obj
 0003:000008c8       $SG27322                   00000001800368c8     c1_dsogi_pll_3ph.obj
 0003:000008d8       $SG27324                   00000001800368d8     c1_dsogi_pll_3ph.obj
 0003:000008e0       $SG27325                   00000001800368e0     c1_dsogi_pll_3ph.obj
 0003:000009d0       $SG27417                   00000001800369d0     c1_dsogi_pll_3ph.obj
 0003:00000a20       $SG27419                   0000000180036a20     c1_dsogi_pll_3ph.obj
 0003:00000a70       $SG27421                   0000000180036a70     c1_dsogi_pll_3ph.obj
 0003:00000ac0       $SG27423                   0000000180036ac0     c1_dsogi_pll_3ph.obj
 0003:00000b10       $SG27425                   0000000180036b10     c1_dsogi_pll_3ph.obj
 0003:00000b60       $SG27427                   0000000180036b60     c1_dsogi_pll_3ph.obj
 0003:00000bb0       $SG27429                   0000000180036bb0     c1_dsogi_pll_3ph.obj
 0003:00000c00       $SG27431                   0000000180036c00     c1_dsogi_pll_3ph.obj
 0003:00000c50       $SG27433                   0000000180036c50     c1_dsogi_pll_3ph.obj
 0003:00000ca0       $SG27435                   0000000180036ca0     c1_dsogi_pll_3ph.obj
 0003:00000cf0       $SG27437                   0000000180036cf0     c1_dsogi_pll_3ph.obj
 0003:00000d40       $SG27439                   0000000180036d40     c1_dsogi_pll_3ph.obj
 0003:00000d90       $SG27441                   0000000180036d90     c1_dsogi_pll_3ph.obj
 0003:00000de0       $SG27443                   0000000180036de0     c1_dsogi_pll_3ph.obj
 0003:00000e30       $SG27445                   0000000180036e30     c1_dsogi_pll_3ph.obj
 0003:00000e80       $SG27447                   0000000180036e80     c1_dsogi_pll_3ph.obj
 0003:00000ed0       $SG27449                   0000000180036ed0     c1_dsogi_pll_3ph.obj
 0003:00000f20       $SG27451                   0000000180036f20     c1_dsogi_pll_3ph.obj
 0003:00000f70       $SG27453                   0000000180036f70     c1_dsogi_pll_3ph.obj
 0003:00000fc0       $SG27455                   0000000180036fc0     c1_dsogi_pll_3ph.obj
 0003:00001010       $SG27457                   0000000180037010     c1_dsogi_pll_3ph.obj
 0003:00001048       $SG27470                   0000000180037048     c1_dsogi_pll_3ph.obj
 0003:00001058       $SG27471                   0000000180037058     c1_dsogi_pll_3ph.obj
 0003:00001070       $SG27493                   0000000180037070     c1_dsogi_pll_3ph.obj
 0003:000010a0       $SG27508                   00000001800370a0     c1_dsogi_pll_3ph.obj
 0003:00001110       $SG27003                   0000000180037110     c2_dsogi_pll_3ph.obj
 0003:00001128       $SG27005                   0000000180037128     c2_dsogi_pll_3ph.obj
 0003:00001144       $SG27089                   0000000180037144     c2_dsogi_pll_3ph.obj
 0003:00001148       $SG27009                   0000000180037148     c2_dsogi_pll_3ph.obj
 0003:00001158       $SG27011                   0000000180037158     c2_dsogi_pll_3ph.obj
 0003:00001170       $SG27012                   0000000180037170     c2_dsogi_pll_3ph.obj
 0003:00001188       $SG27025                   0000000180037188     c2_dsogi_pll_3ph.obj
 0003:00001198       $SG27090                   0000000180037198     c2_dsogi_pll_3ph.obj
 0003:0000119c       $SG27091                   000000018003719c     c2_dsogi_pll_3ph.obj
 0003:000011a0       $SG27098                   00000001800371a0     c2_dsogi_pll_3ph.obj
 0003:000011b0       $SG27099                   00000001800371b0     c2_dsogi_pll_3ph.obj
 0003:000011c0       $SG27100                   00000001800371c0     c2_dsogi_pll_3ph.obj
 0003:000011e0       $SG27161                   00000001800371e0     c2_dsogi_pll_3ph.obj
 0003:000011f0       $SG27232                   00000001800371f0     c2_dsogi_pll_3ph.obj
 0003:000011f8       $SG27234                   00000001800371f8     c2_dsogi_pll_3ph.obj
 0003:00001200       $SG27236                   0000000180037200     c2_dsogi_pll_3ph.obj
 0003:00001208       $SG27238                   0000000180037208     c2_dsogi_pll_3ph.obj
 0003:00001210       $SG27240                   0000000180037210     c2_dsogi_pll_3ph.obj
 0003:00001218       $SG27242                   0000000180037218     c2_dsogi_pll_3ph.obj
 0003:00001220       $SG27244                   0000000180037220     c2_dsogi_pll_3ph.obj
 0003:00001228       $SG27246                   0000000180037228     c2_dsogi_pll_3ph.obj
 0003:00001230       $SG27248                   0000000180037230     c2_dsogi_pll_3ph.obj
 0003:00001238       $SG27250                   0000000180037238     c2_dsogi_pll_3ph.obj
 0003:00001240       $SG27296                   0000000180037240     c2_dsogi_pll_3ph.obj
 0003:00001250       $SG27298                   0000000180037250     c2_dsogi_pll_3ph.obj
 0003:00001260       $SG27300                   0000000180037260     c2_dsogi_pll_3ph.obj
 0003:00001278       $SG27302                   0000000180037278     c2_dsogi_pll_3ph.obj
 0003:00001290       $SG27304                   0000000180037290     c2_dsogi_pll_3ph.obj
 0003:000012a4       $SG27305                   00000001800372a4     c2_dsogi_pll_3ph.obj
 0003:000012b0       $SG27306                   00000001800372b0     c2_dsogi_pll_3ph.obj
 0003:000012c8       $SG27309                   00000001800372c8     c2_dsogi_pll_3ph.obj
 0003:000012d8       $SG27322                   00000001800372d8     c2_dsogi_pll_3ph.obj
 0003:000012e8       $SG27324                   00000001800372e8     c2_dsogi_pll_3ph.obj
 0003:000012f0       $SG27325                   00000001800372f0     c2_dsogi_pll_3ph.obj
 0003:000013e0       $SG27417                   00000001800373e0     c2_dsogi_pll_3ph.obj
 0003:00001430       $SG27419                   0000000180037430     c2_dsogi_pll_3ph.obj
 0003:00001480       $SG27421                   0000000180037480     c2_dsogi_pll_3ph.obj
 0003:000014d0       $SG27423                   00000001800374d0     c2_dsogi_pll_3ph.obj
 0003:00001520       $SG27425                   0000000180037520     c2_dsogi_pll_3ph.obj
 0003:00001570       $SG27427                   0000000180037570     c2_dsogi_pll_3ph.obj
 0003:000015c0       $SG27429                   00000001800375c0     c2_dsogi_pll_3ph.obj
 0003:00001610       $SG27431                   0000000180037610     c2_dsogi_pll_3ph.obj
 0003:00001660       $SG27433                   0000000180037660     c2_dsogi_pll_3ph.obj
 0003:000016b0       $SG27435                   00000001800376b0     c2_dsogi_pll_3ph.obj
 0003:00001700       $SG27437                   0000000180037700     c2_dsogi_pll_3ph.obj
 0003:00001750       $SG27439                   0000000180037750     c2_dsogi_pll_3ph.obj
 0003:000017a0       $SG27441                   00000001800377a0     c2_dsogi_pll_3ph.obj
 0003:000017f0       $SG27443                   00000001800377f0     c2_dsogi_pll_3ph.obj
 0003:00001840       $SG27445                   0000000180037840     c2_dsogi_pll_3ph.obj
 0003:00001890       $SG27447                   0000000180037890     c2_dsogi_pll_3ph.obj
 0003:000018e0       $SG27449                   00000001800378e0     c2_dsogi_pll_3ph.obj
 0003:00001930       $SG27451                   0000000180037930     c2_dsogi_pll_3ph.obj
 0003:00001980       $SG27453                   0000000180037980     c2_dsogi_pll_3ph.obj
 0003:000019d0       $SG27455                   00000001800379d0     c2_dsogi_pll_3ph.obj
 0003:00001a20       $SG27457                   0000000180037a20     c2_dsogi_pll_3ph.obj
 0003:00001a58       $SG27470                   0000000180037a58     c2_dsogi_pll_3ph.obj
 0003:00001a68       $SG27471                   0000000180037a68     c2_dsogi_pll_3ph.obj
 0003:00001a80       $SG27493                   0000000180037a80     c2_dsogi_pll_3ph.obj
 0003:00001ab0       $SG27508                   0000000180037ab0     c2_dsogi_pll_3ph.obj
 0003:00001b20       $SG26867                   0000000180037b20     c10_dsogi_pll_3ph.obj
 0003:00001b30       $SG26868                   0000000180037b30     c10_dsogi_pll_3ph.obj
 0003:00001b78       $SG26870                   0000000180037b78     c10_dsogi_pll_3ph.obj
 0003:00001ba8       $SG26871                   0000000180037ba8     c10_dsogi_pll_3ph.obj
 0003:00001bc0       $SG27004                   0000000180037bc0     c10_dsogi_pll_3ph.obj
 0003:00001bd4       $SG27050                   0000000180037bd4     c10_dsogi_pll_3ph.obj
 0003:00001bd8       $SG27006                   0000000180037bd8     c10_dsogi_pll_3ph.obj
 0003:00001bf4       $SG27051                   0000000180037bf4     c10_dsogi_pll_3ph.obj
 0003:00001bfc       $SG27083                   0000000180037bfc     c10_dsogi_pll_3ph.obj
 0003:00001c00       $SG27010                   0000000180037c00     c10_dsogi_pll_3ph.obj
 0003:00001c10       $SG27012                   0000000180037c10     c10_dsogi_pll_3ph.obj
 0003:00001c24       $SG27084                   0000000180037c24     c10_dsogi_pll_3ph.obj
 0003:00001c28       $SG27013                   0000000180037c28     c10_dsogi_pll_3ph.obj
 0003:00001c3c       $SG27085                   0000000180037c3c     c10_dsogi_pll_3ph.obj
 0003:00001c40       $SG27026                   0000000180037c40     c10_dsogi_pll_3ph.obj
 0003:00001c50       $SG27052                   0000000180037c50     c10_dsogi_pll_3ph.obj
 0003:00001c58       $SG27053                   0000000180037c58     c10_dsogi_pll_3ph.obj
 0003:00001c60       $SG27092                   0000000180037c60     c10_dsogi_pll_3ph.obj
 0003:00001c68       $SG27093                   0000000180037c68     c10_dsogi_pll_3ph.obj
 0003:00001c70       $SG27094                   0000000180037c70     c10_dsogi_pll_3ph.obj
 0003:00001c90       $SG27155                   0000000180037c90     c10_dsogi_pll_3ph.obj
 0003:00001ca0       $SG27221                   0000000180037ca0     c10_dsogi_pll_3ph.obj
 0003:00001ca8       $SG27223                   0000000180037ca8     c10_dsogi_pll_3ph.obj
 0003:00001cb0       $SG27225                   0000000180037cb0     c10_dsogi_pll_3ph.obj
 0003:00001cb8       $SG27227                   0000000180037cb8     c10_dsogi_pll_3ph.obj
 0003:00001cc0       $SG27229                   0000000180037cc0     c10_dsogi_pll_3ph.obj
 0003:00001cc8       $SG27270                   0000000180037cc8     c10_dsogi_pll_3ph.obj
 0003:00001cd8       $SG27272                   0000000180037cd8     c10_dsogi_pll_3ph.obj
 0003:00001ce8       $SG27274                   0000000180037ce8     c10_dsogi_pll_3ph.obj
 0003:00001d00       $SG27276                   0000000180037d00     c10_dsogi_pll_3ph.obj
 0003:00001d18       $SG27278                   0000000180037d18     c10_dsogi_pll_3ph.obj
 0003:00001d2c       $SG27279                   0000000180037d2c     c10_dsogi_pll_3ph.obj
 0003:00001d38       $SG27280                   0000000180037d38     c10_dsogi_pll_3ph.obj
 0003:00001d50       $SG27283                   0000000180037d50     c10_dsogi_pll_3ph.obj
 0003:00001d60       $SG27296                   0000000180037d60     c10_dsogi_pll_3ph.obj
 0003:00001d70       $SG27298                   0000000180037d70     c10_dsogi_pll_3ph.obj
 0003:00001d78       $SG27445                   0000000180037d78     c10_dsogi_pll_3ph.obj
 0003:00001d90       $SG27299                   0000000180037d90     c10_dsogi_pll_3ph.obj
 0003:00001e80       $SG27391                   0000000180037e80     c10_dsogi_pll_3ph.obj
 0003:00001ed0       $SG27393                   0000000180037ed0     c10_dsogi_pll_3ph.obj
 0003:00001f20       $SG27395                   0000000180037f20     c10_dsogi_pll_3ph.obj
 0003:00001f70       $SG27397                   0000000180037f70     c10_dsogi_pll_3ph.obj
 0003:00001fc0       $SG27399                   0000000180037fc0     c10_dsogi_pll_3ph.obj
 0003:00002010       $SG27401                   0000000180038010     c10_dsogi_pll_3ph.obj
 0003:00002060       $SG27403                   0000000180038060     c10_dsogi_pll_3ph.obj
 0003:000020b0       $SG27405                   00000001800380b0     c10_dsogi_pll_3ph.obj
 0003:00002100       $SG27407                   0000000180038100     c10_dsogi_pll_3ph.obj
 0003:00002150       $SG27409                   0000000180038150     c10_dsogi_pll_3ph.obj
 0003:000021a0       $SG27411                   00000001800381a0     c10_dsogi_pll_3ph.obj
 0003:000021f0       $SG27413                   00000001800381f0     c10_dsogi_pll_3ph.obj
 0003:00002240       $SG27415                   0000000180038240     c10_dsogi_pll_3ph.obj
 0003:00002290       $SG27417                   0000000180038290     c10_dsogi_pll_3ph.obj
 0003:000022e0       $SG27419                   00000001800382e0     c10_dsogi_pll_3ph.obj
 0003:00002330       $SG27421                   0000000180038330     c10_dsogi_pll_3ph.obj
 0003:00002380       $SG27423                   0000000180038380     c10_dsogi_pll_3ph.obj
 0003:000023d0       $SG27425                   00000001800383d0     c10_dsogi_pll_3ph.obj
 0003:00002420       $SG27427                   0000000180038420     c10_dsogi_pll_3ph.obj
 0003:00002470       $SG27429                   0000000180038470     c10_dsogi_pll_3ph.obj
 0003:000024c0       $SG27431                   00000001800384c0     c10_dsogi_pll_3ph.obj
 0003:00002500       $SG27444                   0000000180038500     c10_dsogi_pll_3ph.obj
 0003:00002510       $SG27467                   0000000180038510     c10_dsogi_pll_3ph.obj
 0003:00002540       $SG27482                   0000000180038540     c10_dsogi_pll_3ph.obj
 0003:000025b0       $SG26996                   00000001800385b0     c17_dsogi_pll_3ph.obj
 0003:000025c8       $SG26998                   00000001800385c8     c17_dsogi_pll_3ph.obj
 0003:000025e4       $SG27060                   00000001800385e4     c17_dsogi_pll_3ph.obj
 0003:000025e8       $SG27002                   00000001800385e8     c17_dsogi_pll_3ph.obj
 0003:000025f8       $SG27004                   00000001800385f8     c17_dsogi_pll_3ph.obj
 0003:0000260c       $SG27061                   000000018003860c     c17_dsogi_pll_3ph.obj
 0003:00002610       $SG27005                   0000000180038610     c17_dsogi_pll_3ph.obj
 0003:00002624       $SG27068                   0000000180038624     c17_dsogi_pll_3ph.obj
 0003:00002628       $SG27018                   0000000180038628     c17_dsogi_pll_3ph.obj
 0003:00002638       $SG27069                   0000000180038638     c17_dsogi_pll_3ph.obj
 0003:00002658       $SG27130                   0000000180038658     c17_dsogi_pll_3ph.obj
 0003:00002668       $SG27194                   0000000180038668     c17_dsogi_pll_3ph.obj
 0003:00002670       $SG27196                   0000000180038670     c17_dsogi_pll_3ph.obj
 0003:00002678       $SG27198                   0000000180038678     c17_dsogi_pll_3ph.obj
 0003:00002680       $SG27237                   0000000180038680     c17_dsogi_pll_3ph.obj
 0003:00002690       $SG27239                   0000000180038690     c17_dsogi_pll_3ph.obj
 0003:000026a0       $SG27241                   00000001800386a0     c17_dsogi_pll_3ph.obj
 0003:000026b8       $SG27243                   00000001800386b8     c17_dsogi_pll_3ph.obj
 0003:000026d0       $SG27245                   00000001800386d0     c17_dsogi_pll_3ph.obj
 0003:000026e4       $SG27246                   00000001800386e4     c17_dsogi_pll_3ph.obj
 0003:000026f0       $SG27247                   00000001800386f0     c17_dsogi_pll_3ph.obj
 0003:00002708       $SG27250                   0000000180038708     c17_dsogi_pll_3ph.obj
 0003:00002718       $SG27263                   0000000180038718     c17_dsogi_pll_3ph.obj
 0003:00002728       $SG27265                   0000000180038728     c17_dsogi_pll_3ph.obj
 0003:00002730       $SG27266                   0000000180038730     c17_dsogi_pll_3ph.obj
 0003:00002808       $SG27398                   0000000180038808     c17_dsogi_pll_3ph.obj
 0003:00002830       $SG27358                   0000000180038830     c17_dsogi_pll_3ph.obj
 0003:00002880       $SG27360                   0000000180038880     c17_dsogi_pll_3ph.obj
 0003:000028d0       $SG27362                   00000001800388d0     c17_dsogi_pll_3ph.obj
 0003:00002920       $SG27364                   0000000180038920     c17_dsogi_pll_3ph.obj
 0003:00002970       $SG27366                   0000000180038970     c17_dsogi_pll_3ph.obj
 0003:000029c0       $SG27368                   00000001800389c0     c17_dsogi_pll_3ph.obj
 0003:00002a10       $SG27370                   0000000180038a10     c17_dsogi_pll_3ph.obj
 0003:00002a60       $SG27372                   0000000180038a60     c17_dsogi_pll_3ph.obj
 0003:00002ab0       $SG27374                   0000000180038ab0     c17_dsogi_pll_3ph.obj
 0003:00002b00       $SG27376                   0000000180038b00     c17_dsogi_pll_3ph.obj
 0003:00002b50       $SG27378                   0000000180038b50     c17_dsogi_pll_3ph.obj
 0003:00002ba0       $SG27380                   0000000180038ba0     c17_dsogi_pll_3ph.obj
 0003:00002bf0       $SG27382                   0000000180038bf0     c17_dsogi_pll_3ph.obj
 0003:00002c40       $SG27384                   0000000180038c40     c17_dsogi_pll_3ph.obj
 0003:00002c90       $SG27386                   0000000180038c90     c17_dsogi_pll_3ph.obj
 0003:00002ce0       $SG27388                   0000000180038ce0     c17_dsogi_pll_3ph.obj
 0003:00002d30       $SG27390                   0000000180038d30     c17_dsogi_pll_3ph.obj
 0003:00002d80       $SG27392                   0000000180038d80     c17_dsogi_pll_3ph.obj
 0003:00002dd0       $SG27394                   0000000180038dd0     c17_dsogi_pll_3ph.obj
 0003:00002e20       $SG27396                   0000000180038e20     c17_dsogi_pll_3ph.obj
 0003:00002e70       $SG27411                   0000000180038e70     c17_dsogi_pll_3ph.obj
 0003:00002e80       $SG27412                   0000000180038e80     c17_dsogi_pll_3ph.obj
 0003:00002e98       $SG27434                   0000000180038e98     c17_dsogi_pll_3ph.obj
 0003:00002ed0       $SG27449                   0000000180038ed0     c17_dsogi_pll_3ph.obj
 0003:00002f40       $SG26996                   0000000180038f40     c18_dsogi_pll_3ph.obj
 0003:00002f58       $SG26998                   0000000180038f58     c18_dsogi_pll_3ph.obj
 0003:00002f74       $SG27060                   0000000180038f74     c18_dsogi_pll_3ph.obj
 0003:00002f78       $SG27002                   0000000180038f78     c18_dsogi_pll_3ph.obj
 0003:00002f88       $SG27004                   0000000180038f88     c18_dsogi_pll_3ph.obj
 0003:00002f9c       $SG27061                   0000000180038f9c     c18_dsogi_pll_3ph.obj
 0003:00002fa0       $SG27005                   0000000180038fa0     c18_dsogi_pll_3ph.obj
 0003:00002fb4       $SG27068                   0000000180038fb4     c18_dsogi_pll_3ph.obj
 0003:00002fb8       $SG27018                   0000000180038fb8     c18_dsogi_pll_3ph.obj
 0003:00002fc8       $SG27069                   0000000180038fc8     c18_dsogi_pll_3ph.obj
 0003:00002fe8       $SG27130                   0000000180038fe8     c18_dsogi_pll_3ph.obj
 0003:00002ff8       $SG27194                   0000000180038ff8     c18_dsogi_pll_3ph.obj
 0003:00003000       $SG27196                   0000000180039000     c18_dsogi_pll_3ph.obj
 0003:00003008       $SG27198                   0000000180039008     c18_dsogi_pll_3ph.obj
 0003:00003010       $SG27237                   0000000180039010     c18_dsogi_pll_3ph.obj
 0003:00003020       $SG27239                   0000000180039020     c18_dsogi_pll_3ph.obj
 0003:00003030       $SG27241                   0000000180039030     c18_dsogi_pll_3ph.obj
 0003:00003048       $SG27243                   0000000180039048     c18_dsogi_pll_3ph.obj
 0003:00003060       $SG27245                   0000000180039060     c18_dsogi_pll_3ph.obj
 0003:00003074       $SG27246                   0000000180039074     c18_dsogi_pll_3ph.obj
 0003:00003080       $SG27247                   0000000180039080     c18_dsogi_pll_3ph.obj
 0003:00003098       $SG27250                   0000000180039098     c18_dsogi_pll_3ph.obj
 0003:000030a8       $SG27263                   00000001800390a8     c18_dsogi_pll_3ph.obj
 0003:000030b8       $SG27265                   00000001800390b8     c18_dsogi_pll_3ph.obj
 0003:000030c0       $SG27266                   00000001800390c0     c18_dsogi_pll_3ph.obj
 0003:00003198       $SG27411                   0000000180039198     c18_dsogi_pll_3ph.obj
 0003:000031a8       $SG27412                   00000001800391a8     c18_dsogi_pll_3ph.obj
 0003:000031c0       $SG27358                   00000001800391c0     c18_dsogi_pll_3ph.obj
 0003:00003210       $SG27360                   0000000180039210     c18_dsogi_pll_3ph.obj
 0003:00003260       $SG27362                   0000000180039260     c18_dsogi_pll_3ph.obj
 0003:000032b0       $SG27364                   00000001800392b0     c18_dsogi_pll_3ph.obj
 0003:00003300       $SG27366                   0000000180039300     c18_dsogi_pll_3ph.obj
 0003:00003350       $SG27368                   0000000180039350     c18_dsogi_pll_3ph.obj
 0003:000033a0       $SG27370                   00000001800393a0     c18_dsogi_pll_3ph.obj
 0003:000033f0       $SG27372                   00000001800393f0     c18_dsogi_pll_3ph.obj
 0003:00003440       $SG27374                   0000000180039440     c18_dsogi_pll_3ph.obj
 0003:00003490       $SG27376                   0000000180039490     c18_dsogi_pll_3ph.obj
 0003:000034e0       $SG27378                   00000001800394e0     c18_dsogi_pll_3ph.obj
 0003:00003530       $SG27380                   0000000180039530     c18_dsogi_pll_3ph.obj
 0003:00003580       $SG27382                   0000000180039580     c18_dsogi_pll_3ph.obj
 0003:000035d0       $SG27384                   00000001800395d0     c18_dsogi_pll_3ph.obj
 0003:00003620       $SG27386                   0000000180039620     c18_dsogi_pll_3ph.obj
 0003:00003670       $SG27388                   0000000180039670     c18_dsogi_pll_3ph.obj
 0003:000036c0       $SG27390                   00000001800396c0     c18_dsogi_pll_3ph.obj
 0003:00003710       $SG27392                   0000000180039710     c18_dsogi_pll_3ph.obj
 0003:00003760       $SG27394                   0000000180039760     c18_dsogi_pll_3ph.obj
 0003:000037b0       $SG27396                   00000001800397b0     c18_dsogi_pll_3ph.obj
 0003:00003800       $SG27398                   0000000180039800     c18_dsogi_pll_3ph.obj
 0003:00003830       $SG27434                   0000000180039830     c18_dsogi_pll_3ph.obj
 0003:00003860       $SG27449                   0000000180039860     c18_dsogi_pll_3ph.obj
 0003:000038d0       $SG26996                   00000001800398d0     c19_dsogi_pll_3ph.obj
 0003:000038e8       $SG26998                   00000001800398e8     c19_dsogi_pll_3ph.obj
 0003:00003904       $SG27060                   0000000180039904     c19_dsogi_pll_3ph.obj
 0003:00003908       $SG27002                   0000000180039908     c19_dsogi_pll_3ph.obj
 0003:00003918       $SG27004                   0000000180039918     c19_dsogi_pll_3ph.obj
 0003:0000392c       $SG27061                   000000018003992c     c19_dsogi_pll_3ph.obj
 0003:00003930       $SG27005                   0000000180039930     c19_dsogi_pll_3ph.obj
 0003:00003944       $SG27068                   0000000180039944     c19_dsogi_pll_3ph.obj
 0003:00003948       $SG27018                   0000000180039948     c19_dsogi_pll_3ph.obj
 0003:00003958       $SG27069                   0000000180039958     c19_dsogi_pll_3ph.obj
 0003:00003978       $SG27130                   0000000180039978     c19_dsogi_pll_3ph.obj
 0003:00003988       $SG27194                   0000000180039988     c19_dsogi_pll_3ph.obj
 0003:00003990       $SG27196                   0000000180039990     c19_dsogi_pll_3ph.obj
 0003:00003998       $SG27198                   0000000180039998     c19_dsogi_pll_3ph.obj
 0003:000039a0       $SG27237                   00000001800399a0     c19_dsogi_pll_3ph.obj
 0003:000039b0       $SG27239                   00000001800399b0     c19_dsogi_pll_3ph.obj
 0003:000039c0       $SG27241                   00000001800399c0     c19_dsogi_pll_3ph.obj
 0003:000039d8       $SG27243                   00000001800399d8     c19_dsogi_pll_3ph.obj
 0003:000039f0       $SG27245                   00000001800399f0     c19_dsogi_pll_3ph.obj
 0003:00003a04       $SG27246                   0000000180039a04     c19_dsogi_pll_3ph.obj
 0003:00003a10       $SG27247                   0000000180039a10     c19_dsogi_pll_3ph.obj
 0003:00003a28       $SG27250                   0000000180039a28     c19_dsogi_pll_3ph.obj
 0003:00003a38       $SG27263                   0000000180039a38     c19_dsogi_pll_3ph.obj
 0003:00003a48       $SG27265                   0000000180039a48     c19_dsogi_pll_3ph.obj
 0003:00003a50       $SG27266                   0000000180039a50     c19_dsogi_pll_3ph.obj
 0003:00003b28       $SG27398                   0000000180039b28     c19_dsogi_pll_3ph.obj
 0003:00003b50       $SG27358                   0000000180039b50     c19_dsogi_pll_3ph.obj
 0003:00003ba0       $SG27360                   0000000180039ba0     c19_dsogi_pll_3ph.obj
 0003:00003bf0       $SG27362                   0000000180039bf0     c19_dsogi_pll_3ph.obj
 0003:00003c40       $SG27364                   0000000180039c40     c19_dsogi_pll_3ph.obj
 0003:00003c90       $SG27366                   0000000180039c90     c19_dsogi_pll_3ph.obj
 0003:00003ce0       $SG27368                   0000000180039ce0     c19_dsogi_pll_3ph.obj
 0003:00003d30       $SG27370                   0000000180039d30     c19_dsogi_pll_3ph.obj
 0003:00003d80       $SG27372                   0000000180039d80     c19_dsogi_pll_3ph.obj
 0003:00003dd0       $SG27374                   0000000180039dd0     c19_dsogi_pll_3ph.obj
 0003:00003e20       $SG27376                   0000000180039e20     c19_dsogi_pll_3ph.obj
 0003:00003e70       $SG27378                   0000000180039e70     c19_dsogi_pll_3ph.obj
 0003:00003ec0       $SG27380                   0000000180039ec0     c19_dsogi_pll_3ph.obj
 0003:00003f10       $SG27382                   0000000180039f10     c19_dsogi_pll_3ph.obj
 0003:00003f60       $SG27384                   0000000180039f60     c19_dsogi_pll_3ph.obj
 0003:00003fb0       $SG27386                   0000000180039fb0     c19_dsogi_pll_3ph.obj
 0003:00004000       $SG27388                   000000018003a000     c19_dsogi_pll_3ph.obj
 0003:00004050       $SG27390                   000000018003a050     c19_dsogi_pll_3ph.obj
 0003:000040a0       $SG27392                   000000018003a0a0     c19_dsogi_pll_3ph.obj
 0003:000040f0       $SG27394                   000000018003a0f0     c19_dsogi_pll_3ph.obj
 0003:00004140       $SG27396                   000000018003a140     c19_dsogi_pll_3ph.obj
 0003:00004190       $SG27411                   000000018003a190     c19_dsogi_pll_3ph.obj
 0003:000041a0       $SG27412                   000000018003a1a0     c19_dsogi_pll_3ph.obj
 0003:000041b8       $SG27434                   000000018003a1b8     c19_dsogi_pll_3ph.obj
 0003:000041f0       $SG27449                   000000018003a1f0     c19_dsogi_pll_3ph.obj
 0003:00004260       $SG26996                   000000018003a260     c20_dsogi_pll_3ph.obj
 0003:00004278       $SG26998                   000000018003a278     c20_dsogi_pll_3ph.obj
 0003:00004294       $SG27060                   000000018003a294     c20_dsogi_pll_3ph.obj
 0003:00004298       $SG27002                   000000018003a298     c20_dsogi_pll_3ph.obj
 0003:000042a8       $SG27004                   000000018003a2a8     c20_dsogi_pll_3ph.obj
 0003:000042bc       $SG27061                   000000018003a2bc     c20_dsogi_pll_3ph.obj
 0003:000042c0       $SG27005                   000000018003a2c0     c20_dsogi_pll_3ph.obj
 0003:000042d4       $SG27068                   000000018003a2d4     c20_dsogi_pll_3ph.obj
 0003:000042d8       $SG27018                   000000018003a2d8     c20_dsogi_pll_3ph.obj
 0003:000042e8       $SG27069                   000000018003a2e8     c20_dsogi_pll_3ph.obj
 0003:00004308       $SG27130                   000000018003a308     c20_dsogi_pll_3ph.obj
 0003:00004318       $SG27194                   000000018003a318     c20_dsogi_pll_3ph.obj
 0003:00004320       $SG27196                   000000018003a320     c20_dsogi_pll_3ph.obj
 0003:00004328       $SG27198                   000000018003a328     c20_dsogi_pll_3ph.obj
 0003:00004330       $SG27237                   000000018003a330     c20_dsogi_pll_3ph.obj
 0003:00004340       $SG27239                   000000018003a340     c20_dsogi_pll_3ph.obj
 0003:00004350       $SG27241                   000000018003a350     c20_dsogi_pll_3ph.obj
 0003:00004368       $SG27243                   000000018003a368     c20_dsogi_pll_3ph.obj
 0003:00004380       $SG27245                   000000018003a380     c20_dsogi_pll_3ph.obj
 0003:00004394       $SG27246                   000000018003a394     c20_dsogi_pll_3ph.obj
 0003:000043a0       $SG27247                   000000018003a3a0     c20_dsogi_pll_3ph.obj
 0003:000043b8       $SG27250                   000000018003a3b8     c20_dsogi_pll_3ph.obj
 0003:000043c8       $SG27263                   000000018003a3c8     c20_dsogi_pll_3ph.obj
 0003:000043d8       $SG27265                   000000018003a3d8     c20_dsogi_pll_3ph.obj
 0003:000043e0       $SG27266                   000000018003a3e0     c20_dsogi_pll_3ph.obj
 0003:000044b8       $SG27411                   000000018003a4b8     c20_dsogi_pll_3ph.obj
 0003:000044c8       $SG27412                   000000018003a4c8     c20_dsogi_pll_3ph.obj
 0003:000044e0       $SG27358                   000000018003a4e0     c20_dsogi_pll_3ph.obj
 0003:00004530       $SG27360                   000000018003a530     c20_dsogi_pll_3ph.obj
 0003:00004580       $SG27362                   000000018003a580     c20_dsogi_pll_3ph.obj
 0003:000045d0       $SG27364                   000000018003a5d0     c20_dsogi_pll_3ph.obj
 0003:00004620       $SG27366                   000000018003a620     c20_dsogi_pll_3ph.obj
 0003:00004670       $SG27368                   000000018003a670     c20_dsogi_pll_3ph.obj
 0003:000046c0       $SG27370                   000000018003a6c0     c20_dsogi_pll_3ph.obj
 0003:00004710       $SG27372                   000000018003a710     c20_dsogi_pll_3ph.obj
 0003:00004760       $SG27374                   000000018003a760     c20_dsogi_pll_3ph.obj
 0003:000047b0       $SG27376                   000000018003a7b0     c20_dsogi_pll_3ph.obj
 0003:00004800       $SG27378                   000000018003a800     c20_dsogi_pll_3ph.obj
 0003:00004850       $SG27380                   000000018003a850     c20_dsogi_pll_3ph.obj
 0003:000048a0       $SG27382                   000000018003a8a0     c20_dsogi_pll_3ph.obj
 0003:000048f0       $SG27384                   000000018003a8f0     c20_dsogi_pll_3ph.obj
 0003:00004940       $SG27386                   000000018003a940     c20_dsogi_pll_3ph.obj
 0003:00004990       $SG27388                   000000018003a990     c20_dsogi_pll_3ph.obj
 0003:000049e0       $SG27390                   000000018003a9e0     c20_dsogi_pll_3ph.obj
 0003:00004a30       $SG27392                   000000018003aa30     c20_dsogi_pll_3ph.obj
 0003:00004a80       $SG27394                   000000018003aa80     c20_dsogi_pll_3ph.obj
 0003:00004ad0       $SG27396                   000000018003aad0     c20_dsogi_pll_3ph.obj
 0003:00004b20       $SG27398                   000000018003ab20     c20_dsogi_pll_3ph.obj
 0003:00004b50       $SG27434                   000000018003ab50     c20_dsogi_pll_3ph.obj
 0003:00004b80       $SG27449                   000000018003ab80     c20_dsogi_pll_3ph.obj
 0003:00004bf0       $SG26996                   000000018003abf0     c21_dsogi_pll_3ph.obj
 0003:00004c08       $SG26998                   000000018003ac08     c21_dsogi_pll_3ph.obj
 0003:00004c24       $SG27060                   000000018003ac24     c21_dsogi_pll_3ph.obj
 0003:00004c28       $SG27002                   000000018003ac28     c21_dsogi_pll_3ph.obj
 0003:00004c38       $SG27004                   000000018003ac38     c21_dsogi_pll_3ph.obj
 0003:00004c4c       $SG27061                   000000018003ac4c     c21_dsogi_pll_3ph.obj
 0003:00004c50       $SG27005                   000000018003ac50     c21_dsogi_pll_3ph.obj
 0003:00004c64       $SG27068                   000000018003ac64     c21_dsogi_pll_3ph.obj
 0003:00004c68       $SG27018                   000000018003ac68     c21_dsogi_pll_3ph.obj
 0003:00004c78       $SG27069                   000000018003ac78     c21_dsogi_pll_3ph.obj
 0003:00004c98       $SG27130                   000000018003ac98     c21_dsogi_pll_3ph.obj
 0003:00004ca8       $SG27194                   000000018003aca8     c21_dsogi_pll_3ph.obj
 0003:00004cb0       $SG27196                   000000018003acb0     c21_dsogi_pll_3ph.obj
 0003:00004cb8       $SG27198                   000000018003acb8     c21_dsogi_pll_3ph.obj
 0003:00004cc0       $SG27237                   000000018003acc0     c21_dsogi_pll_3ph.obj
 0003:00004cd0       $SG27239                   000000018003acd0     c21_dsogi_pll_3ph.obj
 0003:00004ce0       $SG27241                   000000018003ace0     c21_dsogi_pll_3ph.obj
 0003:00004cf8       $SG27243                   000000018003acf8     c21_dsogi_pll_3ph.obj
 0003:00004d10       $SG27245                   000000018003ad10     c21_dsogi_pll_3ph.obj
 0003:00004d24       $SG27246                   000000018003ad24     c21_dsogi_pll_3ph.obj
 0003:00004d30       $SG27247                   000000018003ad30     c21_dsogi_pll_3ph.obj
 0003:00004d48       $SG27250                   000000018003ad48     c21_dsogi_pll_3ph.obj
 0003:00004d58       $SG27263                   000000018003ad58     c21_dsogi_pll_3ph.obj
 0003:00004d68       $SG27265                   000000018003ad68     c21_dsogi_pll_3ph.obj
 0003:00004d70       $SG27266                   000000018003ad70     c21_dsogi_pll_3ph.obj
 0003:00004e48       $SG27398                   000000018003ae48     c21_dsogi_pll_3ph.obj
 0003:00004e70       $SG27358                   000000018003ae70     c21_dsogi_pll_3ph.obj
 0003:00004ec0       $SG27360                   000000018003aec0     c21_dsogi_pll_3ph.obj
 0003:00004f10       $SG27362                   000000018003af10     c21_dsogi_pll_3ph.obj
 0003:00004f60       $SG27364                   000000018003af60     c21_dsogi_pll_3ph.obj
 0003:00004fb0       $SG27366                   000000018003afb0     c21_dsogi_pll_3ph.obj
 0003:00005000       $SG27368                   000000018003b000     c21_dsogi_pll_3ph.obj
 0003:00005050       $SG27370                   000000018003b050     c21_dsogi_pll_3ph.obj
 0003:000050a0       $SG27372                   000000018003b0a0     c21_dsogi_pll_3ph.obj
 0003:000050f0       $SG27374                   000000018003b0f0     c21_dsogi_pll_3ph.obj
 0003:00005140       $SG27376                   000000018003b140     c21_dsogi_pll_3ph.obj
 0003:00005190       $SG27378                   000000018003b190     c21_dsogi_pll_3ph.obj
 0003:000051e0       $SG27380                   000000018003b1e0     c21_dsogi_pll_3ph.obj
 0003:00005230       $SG27382                   000000018003b230     c21_dsogi_pll_3ph.obj
 0003:00005280       $SG27384                   000000018003b280     c21_dsogi_pll_3ph.obj
 0003:000052d0       $SG27386                   000000018003b2d0     c21_dsogi_pll_3ph.obj
 0003:00005320       $SG27388                   000000018003b320     c21_dsogi_pll_3ph.obj
 0003:00005370       $SG27390                   000000018003b370     c21_dsogi_pll_3ph.obj
 0003:000053c0       $SG27392                   000000018003b3c0     c21_dsogi_pll_3ph.obj
 0003:00005410       $SG27394                   000000018003b410     c21_dsogi_pll_3ph.obj
 0003:00005460       $SG27396                   000000018003b460     c21_dsogi_pll_3ph.obj
 0003:000054b0       $SG27411                   000000018003b4b0     c21_dsogi_pll_3ph.obj
 0003:000054c0       $SG27412                   000000018003b4c0     c21_dsogi_pll_3ph.obj
 0003:000054d8       $SG27434                   000000018003b4d8     c21_dsogi_pll_3ph.obj
 0003:00005510       $SG27449                   000000018003b510     c21_dsogi_pll_3ph.obj
 0003:00005580       $SG26996                   000000018003b580     c22_dsogi_pll_3ph.obj
 0003:00005598       $SG26998                   000000018003b598     c22_dsogi_pll_3ph.obj
 0003:000055b4       $SG27060                   000000018003b5b4     c22_dsogi_pll_3ph.obj
 0003:000055b8       $SG27002                   000000018003b5b8     c22_dsogi_pll_3ph.obj
 0003:000055c8       $SG27004                   000000018003b5c8     c22_dsogi_pll_3ph.obj
 0003:000055dc       $SG27061                   000000018003b5dc     c22_dsogi_pll_3ph.obj
 0003:000055e0       $SG27005                   000000018003b5e0     c22_dsogi_pll_3ph.obj
 0003:000055f4       $SG27068                   000000018003b5f4     c22_dsogi_pll_3ph.obj
 0003:000055f8       $SG27018                   000000018003b5f8     c22_dsogi_pll_3ph.obj
 0003:00005608       $SG27069                   000000018003b608     c22_dsogi_pll_3ph.obj
 0003:00005628       $SG27130                   000000018003b628     c22_dsogi_pll_3ph.obj
 0003:00005638       $SG27194                   000000018003b638     c22_dsogi_pll_3ph.obj
 0003:00005640       $SG27196                   000000018003b640     c22_dsogi_pll_3ph.obj
 0003:00005648       $SG27198                   000000018003b648     c22_dsogi_pll_3ph.obj
 0003:00005650       $SG27237                   000000018003b650     c22_dsogi_pll_3ph.obj
 0003:00005660       $SG27239                   000000018003b660     c22_dsogi_pll_3ph.obj
 0003:00005670       $SG27241                   000000018003b670     c22_dsogi_pll_3ph.obj
 0003:00005688       $SG27243                   000000018003b688     c22_dsogi_pll_3ph.obj
 0003:000056a0       $SG27245                   000000018003b6a0     c22_dsogi_pll_3ph.obj
 0003:000056b4       $SG27246                   000000018003b6b4     c22_dsogi_pll_3ph.obj
 0003:000056c0       $SG27247                   000000018003b6c0     c22_dsogi_pll_3ph.obj
 0003:000056d8       $SG27250                   000000018003b6d8     c22_dsogi_pll_3ph.obj
 0003:000056e8       $SG27263                   000000018003b6e8     c22_dsogi_pll_3ph.obj
 0003:000056f8       $SG27265                   000000018003b6f8     c22_dsogi_pll_3ph.obj
 0003:00005700       $SG27266                   000000018003b700     c22_dsogi_pll_3ph.obj
 0003:000057d8       $SG27398                   000000018003b7d8     c22_dsogi_pll_3ph.obj
 0003:00005800       $SG27358                   000000018003b800     c22_dsogi_pll_3ph.obj
 0003:00005850       $SG27360                   000000018003b850     c22_dsogi_pll_3ph.obj
 0003:000058a0       $SG27362                   000000018003b8a0     c22_dsogi_pll_3ph.obj
 0003:000058f0       $SG27364                   000000018003b8f0     c22_dsogi_pll_3ph.obj
 0003:00005940       $SG27366                   000000018003b940     c22_dsogi_pll_3ph.obj
 0003:00005990       $SG27368                   000000018003b990     c22_dsogi_pll_3ph.obj
 0003:000059e0       $SG27370                   000000018003b9e0     c22_dsogi_pll_3ph.obj
 0003:00005a30       $SG27372                   000000018003ba30     c22_dsogi_pll_3ph.obj
 0003:00005a80       $SG27374                   000000018003ba80     c22_dsogi_pll_3ph.obj
 0003:00005ad0       $SG27376                   000000018003bad0     c22_dsogi_pll_3ph.obj
 0003:00005b20       $SG27378                   000000018003bb20     c22_dsogi_pll_3ph.obj
 0003:00005b70       $SG27380                   000000018003bb70     c22_dsogi_pll_3ph.obj
 0003:00005bc0       $SG27382                   000000018003bbc0     c22_dsogi_pll_3ph.obj
 0003:00005c10       $SG27384                   000000018003bc10     c22_dsogi_pll_3ph.obj
 0003:00005c60       $SG27386                   000000018003bc60     c22_dsogi_pll_3ph.obj
 0003:00005cb0       $SG27388                   000000018003bcb0     c22_dsogi_pll_3ph.obj
 0003:00005d00       $SG27390                   000000018003bd00     c22_dsogi_pll_3ph.obj
 0003:00005d50       $SG27392                   000000018003bd50     c22_dsogi_pll_3ph.obj
 0003:00005da0       $SG27394                   000000018003bda0     c22_dsogi_pll_3ph.obj
 0003:00005df0       $SG27396                   000000018003bdf0     c22_dsogi_pll_3ph.obj
 0003:00005e40       $SG27411                   000000018003be40     c22_dsogi_pll_3ph.obj
 0003:00005e50       $SG27412                   000000018003be50     c22_dsogi_pll_3ph.obj
 0003:00005e68       $SG27434                   000000018003be68     c22_dsogi_pll_3ph.obj
 0003:00005ea0       $SG27449                   000000018003bea0     c22_dsogi_pll_3ph.obj
 0003:00005f10       $SG27000                   000000018003bf10     c23_dsogi_pll_3ph.obj
 0003:00005f28       $SG27002                   000000018003bf28     c23_dsogi_pll_3ph.obj
 0003:00005f44       $SG27113                   000000018003bf44     c23_dsogi_pll_3ph.obj
 0003:00005f48       $SG27006                   000000018003bf48     c23_dsogi_pll_3ph.obj
 0003:00005f58       $SG27008                   000000018003bf58     c23_dsogi_pll_3ph.obj
 0003:00005f6c       $SG27114                   000000018003bf6c     c23_dsogi_pll_3ph.obj
 0003:00005f70       $SG27009                   000000018003bf70     c23_dsogi_pll_3ph.obj
 0003:00005f84       $SG27115                   000000018003bf84     c23_dsogi_pll_3ph.obj
 0003:00005f88       $SG27028                   000000018003bf88     c23_dsogi_pll_3ph.obj
 0003:00005f98       $SG27116                   000000018003bf98     c23_dsogi_pll_3ph.obj
 0003:00005f9c       $SG27123                   000000018003bf9c     c23_dsogi_pll_3ph.obj
 0003:00005fa4       $SG27124                   000000018003bfa4     c23_dsogi_pll_3ph.obj
 0003:00005fac       $SG27125                   000000018003bfac     c23_dsogi_pll_3ph.obj
 0003:00005fb0       $SG27126                   000000018003bfb0     c23_dsogi_pll_3ph.obj
 0003:00005fcc       $SG27473                   000000018003bfcc     c23_dsogi_pll_3ph.obj
 0003:00005fd0       $SG27187                   000000018003bfd0     c23_dsogi_pll_3ph.obj
 0003:00005fe0       $SG27255                   000000018003bfe0     c23_dsogi_pll_3ph.obj
 0003:00005fe8       $SG27257                   000000018003bfe8     c23_dsogi_pll_3ph.obj
 0003:00005ff0       $SG27259                   000000018003bff0     c23_dsogi_pll_3ph.obj
 0003:00005ff8       $SG27261                   000000018003bff8     c23_dsogi_pll_3ph.obj
 0003:00006000       $SG27263                   000000018003c000     c23_dsogi_pll_3ph.obj
 0003:00006008       $SG27265                   000000018003c008     c23_dsogi_pll_3ph.obj
 0003:00006010       $SG27267                   000000018003c010     c23_dsogi_pll_3ph.obj
 0003:00006018       $SG27310                   000000018003c018     c23_dsogi_pll_3ph.obj
 0003:00006028       $SG27312                   000000018003c028     c23_dsogi_pll_3ph.obj
 0003:00006038       $SG27314                   000000018003c038     c23_dsogi_pll_3ph.obj
 0003:00006050       $SG27316                   000000018003c050     c23_dsogi_pll_3ph.obj
 0003:00006068       $SG27318                   000000018003c068     c23_dsogi_pll_3ph.obj
 0003:0000607c       $SG27319                   000000018003c07c     c23_dsogi_pll_3ph.obj
 0003:00006088       $SG27320                   000000018003c088     c23_dsogi_pll_3ph.obj
 0003:000060a0       $SG27323                   000000018003c0a0     c23_dsogi_pll_3ph.obj
 0003:000060b0       $SG27336                   000000018003c0b0     c23_dsogi_pll_3ph.obj
 0003:000060c0       $SG27338                   000000018003c0c0     c23_dsogi_pll_3ph.obj
 0003:000060c8       $SG27487                   000000018003c0c8     c23_dsogi_pll_3ph.obj
 0003:000060e0       $SG27339                   000000018003c0e0     c23_dsogi_pll_3ph.obj
 0003:000061e0       $SG27431                   000000018003c1e0     c23_dsogi_pll_3ph.obj
 0003:00006230       $SG27433                   000000018003c230     c23_dsogi_pll_3ph.obj
 0003:00006280       $SG27435                   000000018003c280     c23_dsogi_pll_3ph.obj
 0003:000062d0       $SG27437                   000000018003c2d0     c23_dsogi_pll_3ph.obj
 0003:00006320       $SG27439                   000000018003c320     c23_dsogi_pll_3ph.obj
 0003:00006370       $SG27441                   000000018003c370     c23_dsogi_pll_3ph.obj
 0003:000063c0       $SG27443                   000000018003c3c0     c23_dsogi_pll_3ph.obj
 0003:00006410       $SG27445                   000000018003c410     c23_dsogi_pll_3ph.obj
 0003:00006460       $SG27447                   000000018003c460     c23_dsogi_pll_3ph.obj
 0003:000064b0       $SG27449                   000000018003c4b0     c23_dsogi_pll_3ph.obj
 0003:00006500       $SG27451                   000000018003c500     c23_dsogi_pll_3ph.obj
 0003:00006550       $SG27453                   000000018003c550     c23_dsogi_pll_3ph.obj
 0003:000065a0       $SG27455                   000000018003c5a0     c23_dsogi_pll_3ph.obj
 0003:000065f0       $SG27457                   000000018003c5f0     c23_dsogi_pll_3ph.obj
 0003:00006640       $SG27459                   000000018003c640     c23_dsogi_pll_3ph.obj
 0003:00006690       $SG27461                   000000018003c690     c23_dsogi_pll_3ph.obj
 0003:000066e0       $SG27463                   000000018003c6e0     c23_dsogi_pll_3ph.obj
 0003:00006730       $SG27465                   000000018003c730     c23_dsogi_pll_3ph.obj
 0003:00006780       $SG27467                   000000018003c780     c23_dsogi_pll_3ph.obj
 0003:000067d0       $SG27469                   000000018003c7d0     c23_dsogi_pll_3ph.obj
 0003:00006820       $SG27471                   000000018003c820     c23_dsogi_pll_3ph.obj
 0003:00006870       $SG27486                   000000018003c870     c23_dsogi_pll_3ph.obj
 0003:00006880       $SG27509                   000000018003c880     c23_dsogi_pll_3ph.obj
 0003:000068b0       $SG27524                   000000018003c8b0     c23_dsogi_pll_3ph.obj
 0003:00006920       $SG26999                   000000018003c920     c24_dsogi_pll_3ph.obj
 0003:00006938       $SG27001                   000000018003c938     c24_dsogi_pll_3ph.obj
 0003:00006954       $SG27069                   000000018003c954     c24_dsogi_pll_3ph.obj
 0003:00006958       $SG27005                   000000018003c958     c24_dsogi_pll_3ph.obj
 0003:00006968       $SG27007                   000000018003c968     c24_dsogi_pll_3ph.obj
 0003:0000697c       $SG27070                   000000018003c97c     c24_dsogi_pll_3ph.obj
 0003:00006980       $SG27008                   000000018003c980     c24_dsogi_pll_3ph.obj
 0003:00006994       $SG27071                   000000018003c994     c24_dsogi_pll_3ph.obj
 0003:00006998       $SG27021                   000000018003c998     c24_dsogi_pll_3ph.obj
 0003:000069a8       $SG27078                   000000018003c9a8     c24_dsogi_pll_3ph.obj
 0003:000069b0       $SG27079                   000000018003c9b0     c24_dsogi_pll_3ph.obj
 0003:000069b8       $SG27080                   000000018003c9b8     c24_dsogi_pll_3ph.obj
 0003:000069d8       $SG27141                   000000018003c9d8     c24_dsogi_pll_3ph.obj
 0003:000069e8       $SG27208                   000000018003c9e8     c24_dsogi_pll_3ph.obj
 0003:000069f0       $SG27210                   000000018003c9f0     c24_dsogi_pll_3ph.obj
 0003:000069f8       $SG27212                   000000018003c9f8     c24_dsogi_pll_3ph.obj
 0003:00006a00       $SG27214                   000000018003ca00     c24_dsogi_pll_3ph.obj
 0003:00006a08       $SG27216                   000000018003ca08     c24_dsogi_pll_3ph.obj
 0003:00006a10       $SG27218                   000000018003ca10     c24_dsogi_pll_3ph.obj
 0003:00006a18       $SG27260                   000000018003ca18     c24_dsogi_pll_3ph.obj
 0003:00006a28       $SG27262                   000000018003ca28     c24_dsogi_pll_3ph.obj
 0003:00006a38       $SG27264                   000000018003ca38     c24_dsogi_pll_3ph.obj
 0003:00006a50       $SG27266                   000000018003ca50     c24_dsogi_pll_3ph.obj
 0003:00006a68       $SG27268                   000000018003ca68     c24_dsogi_pll_3ph.obj
 0003:00006a7c       $SG27269                   000000018003ca7c     c24_dsogi_pll_3ph.obj
 0003:00006a88       $SG27270                   000000018003ca88     c24_dsogi_pll_3ph.obj
 0003:00006aa0       $SG27273                   000000018003caa0     c24_dsogi_pll_3ph.obj
 0003:00006ab0       $SG27286                   000000018003cab0     c24_dsogi_pll_3ph.obj
 0003:00006ac0       $SG27288                   000000018003cac0     c24_dsogi_pll_3ph.obj
 0003:00006ac8       $SG27421                   000000018003cac8     c24_dsogi_pll_3ph.obj
 0003:00006b00       $SG27289                   000000018003cb00     c24_dsogi_pll_3ph.obj
 0003:00006be8       $SG27434                   000000018003cbe8     c24_dsogi_pll_3ph.obj
 0003:00006bf8       $SG27435                   000000018003cbf8     c24_dsogi_pll_3ph.obj
 0003:00006c10       $SG27381                   000000018003cc10     c24_dsogi_pll_3ph.obj
 0003:00006c60       $SG27383                   000000018003cc60     c24_dsogi_pll_3ph.obj
 0003:00006cb0       $SG27385                   000000018003ccb0     c24_dsogi_pll_3ph.obj
 0003:00006d00       $SG27387                   000000018003cd00     c24_dsogi_pll_3ph.obj
 0003:00006d50       $SG27389                   000000018003cd50     c24_dsogi_pll_3ph.obj
 0003:00006da0       $SG27391                   000000018003cda0     c24_dsogi_pll_3ph.obj
 0003:00006df0       $SG27393                   000000018003cdf0     c24_dsogi_pll_3ph.obj
 0003:00006e40       $SG27395                   000000018003ce40     c24_dsogi_pll_3ph.obj
 0003:00006e90       $SG27397                   000000018003ce90     c24_dsogi_pll_3ph.obj
 0003:00006ee0       $SG27399                   000000018003cee0     c24_dsogi_pll_3ph.obj
 0003:00006f30       $SG27401                   000000018003cf30     c24_dsogi_pll_3ph.obj
 0003:00006f80       $SG27403                   000000018003cf80     c24_dsogi_pll_3ph.obj
 0003:00006fd0       $SG27405                   000000018003cfd0     c24_dsogi_pll_3ph.obj
 0003:00007020       $SG27407                   000000018003d020     c24_dsogi_pll_3ph.obj
 0003:00007070       $SG27409                   000000018003d070     c24_dsogi_pll_3ph.obj
 0003:000070c0       $SG27411                   000000018003d0c0     c24_dsogi_pll_3ph.obj
 0003:00007110       $SG27413                   000000018003d110     c24_dsogi_pll_3ph.obj
 0003:00007160       $SG27415                   000000018003d160     c24_dsogi_pll_3ph.obj
 0003:000071b0       $SG27417                   000000018003d1b0     c24_dsogi_pll_3ph.obj
 0003:00007200       $SG27419                   000000018003d200     c24_dsogi_pll_3ph.obj
 0003:00007250       $SG27457                   000000018003d250     c24_dsogi_pll_3ph.obj
 0003:00007280       $SG27472                   000000018003d280     c24_dsogi_pll_3ph.obj
 0003:000072f0       $SG26997                   000000018003d2f0     c25_dsogi_pll_3ph.obj
 0003:00007308       $SG26999                   000000018003d308     c25_dsogi_pll_3ph.obj
 0003:00007324       $SG27070                   000000018003d324     c25_dsogi_pll_3ph.obj
 0003:00007328       $SG27003                   000000018003d328     c25_dsogi_pll_3ph.obj
 0003:00007338       $SG27005                   000000018003d338     c25_dsogi_pll_3ph.obj
 0003:0000734c       $SG27071                   000000018003d34c     c25_dsogi_pll_3ph.obj
 0003:00007350       $SG27006                   000000018003d350     c25_dsogi_pll_3ph.obj
 0003:00007368       $SG27019                   000000018003d368     c25_dsogi_pll_3ph.obj
 0003:00007378       $SG27078                   000000018003d378     c25_dsogi_pll_3ph.obj
 0003:00007380       $SG27079                   000000018003d380     c25_dsogi_pll_3ph.obj
 0003:000073a0       $SG27140                   000000018003d3a0     c25_dsogi_pll_3ph.obj
 0003:000073b0       $SG27205                   000000018003d3b0     c25_dsogi_pll_3ph.obj
 0003:000073b8       $SG27207                   000000018003d3b8     c25_dsogi_pll_3ph.obj
 0003:000073c0       $SG27209                   000000018003d3c0     c25_dsogi_pll_3ph.obj
 0003:000073c8       $SG27211                   000000018003d3c8     c25_dsogi_pll_3ph.obj
 0003:000073d0       $SG27251                   000000018003d3d0     c25_dsogi_pll_3ph.obj
 0003:000073e0       $SG27253                   000000018003d3e0     c25_dsogi_pll_3ph.obj
 0003:000073f0       $SG27255                   000000018003d3f0     c25_dsogi_pll_3ph.obj
 0003:00007408       $SG27257                   000000018003d408     c25_dsogi_pll_3ph.obj
 0003:00007420       $SG27259                   000000018003d420     c25_dsogi_pll_3ph.obj
 0003:00007434       $SG27260                   000000018003d434     c25_dsogi_pll_3ph.obj
 0003:00007440       $SG27261                   000000018003d440     c25_dsogi_pll_3ph.obj
 0003:00007458       $SG27264                   000000018003d458     c25_dsogi_pll_3ph.obj
 0003:00007468       $SG27277                   000000018003d468     c25_dsogi_pll_3ph.obj
 0003:00007478       $SG27279                   000000018003d478     c25_dsogi_pll_3ph.obj
 0003:00007480       $SG27280                   000000018003d480     c25_dsogi_pll_3ph.obj
 0003:00007560       $SG27372                   000000018003d560     c25_dsogi_pll_3ph.obj
 0003:000075b0       $SG27374                   000000018003d5b0     c25_dsogi_pll_3ph.obj
 0003:00007600       $SG27376                   000000018003d600     c25_dsogi_pll_3ph.obj
 0003:00007650       $SG27378                   000000018003d650     c25_dsogi_pll_3ph.obj
 0003:000076a0       $SG27380                   000000018003d6a0     c25_dsogi_pll_3ph.obj
 0003:000076f0       $SG27382                   000000018003d6f0     c25_dsogi_pll_3ph.obj
 0003:00007740       $SG27384                   000000018003d740     c25_dsogi_pll_3ph.obj
 0003:00007790       $SG27386                   000000018003d790     c25_dsogi_pll_3ph.obj
 0003:000077e0       $SG27388                   000000018003d7e0     c25_dsogi_pll_3ph.obj
 0003:00007830       $SG27390                   000000018003d830     c25_dsogi_pll_3ph.obj
 0003:00007880       $SG27392                   000000018003d880     c25_dsogi_pll_3ph.obj
 0003:000078d0       $SG27394                   000000018003d8d0     c25_dsogi_pll_3ph.obj
 0003:00007920       $SG27396                   000000018003d920     c25_dsogi_pll_3ph.obj
 0003:00007970       $SG27398                   000000018003d970     c25_dsogi_pll_3ph.obj
 0003:000079c0       $SG27400                   000000018003d9c0     c25_dsogi_pll_3ph.obj
 0003:00007a10       $SG27402                   000000018003da10     c25_dsogi_pll_3ph.obj
 0003:00007a60       $SG27404                   000000018003da60     c25_dsogi_pll_3ph.obj
 0003:00007ab0       $SG27406                   000000018003dab0     c25_dsogi_pll_3ph.obj
 0003:00007b00       $SG27408                   000000018003db00     c25_dsogi_pll_3ph.obj
 0003:00007b50       $SG27410                   000000018003db50     c25_dsogi_pll_3ph.obj
 0003:00007ba0       $SG27412                   000000018003dba0     c25_dsogi_pll_3ph.obj
 0003:00007bd8       $SG27425                   000000018003dbd8     c25_dsogi_pll_3ph.obj
 0003:00007be8       $SG27426                   000000018003dbe8     c25_dsogi_pll_3ph.obj
 0003:00007c00       $SG27448                   000000018003dc00     c25_dsogi_pll_3ph.obj
 0003:00007c30       $SG27463                   000000018003dc30     c25_dsogi_pll_3ph.obj
 0003:00007ca0       $SG26996                   000000018003dca0     c26_dsogi_pll_3ph.obj
 0003:00007cb8       $SG26998                   000000018003dcb8     c26_dsogi_pll_3ph.obj
 0003:00007cd4       $SG27060                   000000018003dcd4     c26_dsogi_pll_3ph.obj
 0003:00007cd8       $SG27002                   000000018003dcd8     c26_dsogi_pll_3ph.obj
 0003:00007ce8       $SG27004                   000000018003dce8     c26_dsogi_pll_3ph.obj
 0003:00007cfc       $SG27061                   000000018003dcfc     c26_dsogi_pll_3ph.obj
 0003:00007d00       $SG27005                   000000018003dd00     c26_dsogi_pll_3ph.obj
 0003:00007d14       $SG27068                   000000018003dd14     c26_dsogi_pll_3ph.obj
 0003:00007d18       $SG27018                   000000018003dd18     c26_dsogi_pll_3ph.obj
 0003:00007d28       $SG27069                   000000018003dd28     c26_dsogi_pll_3ph.obj
 0003:00007d48       $SG27130                   000000018003dd48     c26_dsogi_pll_3ph.obj
 0003:00007d58       $SG27194                   000000018003dd58     c26_dsogi_pll_3ph.obj
 0003:00007d60       $SG27196                   000000018003dd60     c26_dsogi_pll_3ph.obj
 0003:00007d68       $SG27198                   000000018003dd68     c26_dsogi_pll_3ph.obj
 0003:00007d70       $SG27237                   000000018003dd70     c26_dsogi_pll_3ph.obj
 0003:00007d80       $SG27239                   000000018003dd80     c26_dsogi_pll_3ph.obj
 0003:00007d90       $SG27241                   000000018003dd90     c26_dsogi_pll_3ph.obj
 0003:00007da8       $SG27243                   000000018003dda8     c26_dsogi_pll_3ph.obj
 0003:00007dc0       $SG27245                   000000018003ddc0     c26_dsogi_pll_3ph.obj
 0003:00007dd4       $SG27246                   000000018003ddd4     c26_dsogi_pll_3ph.obj
 0003:00007de0       $SG27247                   000000018003dde0     c26_dsogi_pll_3ph.obj
 0003:00007df8       $SG27250                   000000018003ddf8     c26_dsogi_pll_3ph.obj
 0003:00007e08       $SG27263                   000000018003de08     c26_dsogi_pll_3ph.obj
 0003:00007e18       $SG27265                   000000018003de18     c26_dsogi_pll_3ph.obj
 0003:00007e20       $SG27266                   000000018003de20     c26_dsogi_pll_3ph.obj
 0003:00007ef8       $SG27411                   000000018003def8     c26_dsogi_pll_3ph.obj
 0003:00007f08       $SG27412                   000000018003df08     c26_dsogi_pll_3ph.obj
 0003:00007f20       $SG27358                   000000018003df20     c26_dsogi_pll_3ph.obj
 0003:00007f70       $SG27360                   000000018003df70     c26_dsogi_pll_3ph.obj
 0003:00007fc0       $SG27362                   000000018003dfc0     c26_dsogi_pll_3ph.obj
 0003:00008010       $SG27364                   000000018003e010     c26_dsogi_pll_3ph.obj
 0003:00008060       $SG27366                   000000018003e060     c26_dsogi_pll_3ph.obj
 0003:000080b0       $SG27368                   000000018003e0b0     c26_dsogi_pll_3ph.obj
 0003:00008100       $SG27370                   000000018003e100     c26_dsogi_pll_3ph.obj
 0003:00008150       $SG27372                   000000018003e150     c26_dsogi_pll_3ph.obj
 0003:000081a0       $SG27374                   000000018003e1a0     c26_dsogi_pll_3ph.obj
 0003:000081f0       $SG27376                   000000018003e1f0     c26_dsogi_pll_3ph.obj
 0003:00008240       $SG27378                   000000018003e240     c26_dsogi_pll_3ph.obj
 0003:00008290       $SG27380                   000000018003e290     c26_dsogi_pll_3ph.obj
 0003:000082e0       $SG27382                   000000018003e2e0     c26_dsogi_pll_3ph.obj
 0003:00008330       $SG27384                   000000018003e330     c26_dsogi_pll_3ph.obj
 0003:00008380       $SG27386                   000000018003e380     c26_dsogi_pll_3ph.obj
 0003:000083d0       $SG27388                   000000018003e3d0     c26_dsogi_pll_3ph.obj
 0003:00008420       $SG27390                   000000018003e420     c26_dsogi_pll_3ph.obj
 0003:00008470       $SG27392                   000000018003e470     c26_dsogi_pll_3ph.obj
 0003:000084c0       $SG27394                   000000018003e4c0     c26_dsogi_pll_3ph.obj
 0003:00008510       $SG27396                   000000018003e510     c26_dsogi_pll_3ph.obj
 0003:00008560       $SG27398                   000000018003e560     c26_dsogi_pll_3ph.obj
 0003:00008590       $SG27434                   000000018003e590     c26_dsogi_pll_3ph.obj
 0003:000085c0       $SG27449                   000000018003e5c0     c26_dsogi_pll_3ph.obj
 0003:00008638       $SG26870                   000000018003e638     dsogi_pll_3ph_sfun_registry.obj
 0003:00008658       $SG26872                   000000018003e658     dsogi_pll_3ph_sfun_registry.obj
 0003:00008668       $SG26908                   000000018003e668     dsogi_pll_3ph_sfun_registry.obj
 0003:00008680       $SG26910                   000000018003e680     dsogi_pll_3ph_sfun_registry.obj
 0003:00008690       $SG26946                   000000018003e690     dsogi_pll_3ph_sfun_registry.obj
 0003:000086a8       $SG26948                   000000018003e6a8     dsogi_pll_3ph_sfun_registry.obj
 0003:000086b8       $SG26984                   000000018003e6b8     dsogi_pll_3ph_sfun_registry.obj
 0003:000086d8       $SG26986                   000000018003e6d8     dsogi_pll_3ph_sfun_registry.obj
 0003:000086e8       $SG27022                   000000018003e6e8     dsogi_pll_3ph_sfun_registry.obj
 0003:00008708       $SG27024                   000000018003e708     dsogi_pll_3ph_sfun_registry.obj
 0003:00008718       $SG27044                   000000018003e718     dsogi_pll_3ph_sfun_registry.obj
 0003:00008728       $SG27062                   000000018003e728     dsogi_pll_3ph_sfun_registry.obj
 0003:00008740       $SG27093                   000000018003e740     dsogi_pll_3ph_sfun_registry.obj
 0003:00008750       $SG27193                   000000018003e750     dsogi_pll_3ph_sfun_registry.obj
 0003:00008758       $SG27194                   000000018003e758     dsogi_pll_3ph_sfun_registry.obj
 0003:0000876c       $SG27199                   000000018003e76c     dsogi_pll_3ph_sfun_registry.obj
 0003:00008774       $SG29057                   000000018003e774     dsogi_pll_3ph_sfun_registry.obj
 0003:00008778       $SG27200                   000000018003e778     dsogi_pll_3ph_sfun_registry.obj
 0003:00008794       $SG27970                   000000018003e794     dsogi_pll_3ph_sfun_registry.obj
 0003:0000879c       $SG29138                   000000018003e79c     dsogi_pll_3ph_sfun_registry.obj
 0003:000087a0       $SG27342                   000000018003e7a0     dsogi_pll_3ph_sfun_registry.obj
 0003:000087c8       _sfcnName                  000000018003e7c8     dsogi_pll_3ph_sfun_registry.obj
 0003:000087e8       $SG27763                   000000018003e7e8     dsogi_pll_3ph_sfun_registry.obj
 0003:000087f0       $SG27359                   000000018003e7f0     dsogi_pll_3ph_sfun_registry.obj
 0003:00008868       $SG27764                   000000018003e868     dsogi_pll_3ph_sfun_registry.obj
 0003:00008870       $SG27778                   000000018003e870     dsogi_pll_3ph_sfun_registry.obj
 0003:00008880       $SG27968                   000000018003e880     dsogi_pll_3ph_sfun_registry.obj
 0003:000088c0       $SG27969                   000000018003e8c0     dsogi_pll_3ph_sfun_registry.obj
 0003:000088d0       $SG27974                   000000018003e8d0     dsogi_pll_3ph_sfun_registry.obj
 0003:00008918       $SG27975                   000000018003e918     dsogi_pll_3ph_sfun_registry.obj
 0003:00008928       $SG27976                   000000018003e928     dsogi_pll_3ph_sfun_registry.obj
 0003:00008930       $SG27977                   000000018003e930     dsogi_pll_3ph_sfun_registry.obj
 0003:00008988       $SG27978                   000000018003e988     dsogi_pll_3ph_sfun_registry.obj
 0003:00008998       $SG27979                   000000018003e998     dsogi_pll_3ph_sfun_registry.obj
 0003:000089a0       $SG28001                   000000018003e9a0     dsogi_pll_3ph_sfun_registry.obj
 0003:000089e0       $SG28002                   000000018003e9e0     dsogi_pll_3ph_sfun_registry.obj
 0003:000089f0       $SG28003                   000000018003e9f0     dsogi_pll_3ph_sfun_registry.obj
 0003:000089f8       $SG28009                   000000018003e9f8     dsogi_pll_3ph_sfun_registry.obj
 0003:00008a00       $SG28007                   000000018003ea00     dsogi_pll_3ph_sfun_registry.obj
 0003:00008a48       $SG28008                   000000018003ea48     dsogi_pll_3ph_sfun_registry.obj
 0003:00008a58       $SG28012                   000000018003ea58     dsogi_pll_3ph_sfun_registry.obj
 0003:00008a60       $SG28010                   000000018003ea60     dsogi_pll_3ph_sfun_registry.obj
 0003:00008ab8       $SG28011                   000000018003eab8     dsogi_pll_3ph_sfun_registry.obj
 0003:00008ac8       $SG28038                   000000018003eac8     dsogi_pll_3ph_sfun_registry.obj
 0003:00008ad0       $SG28036                   000000018003ead0     dsogi_pll_3ph_sfun_registry.obj
 0003:00008b20       $SG28037                   000000018003eb20     dsogi_pll_3ph_sfun_registry.obj
 0003:00008b30       $SG28050                   000000018003eb30     dsogi_pll_3ph_sfun_registry.obj
 0003:00008b90       $SG28051                   000000018003eb90     dsogi_pll_3ph_sfun_registry.obj
 0003:00008b98       $SG28052                   000000018003eb98     dsogi_pll_3ph_sfun_registry.obj
 0003:00008ba0       $SG28064                   000000018003eba0     dsogi_pll_3ph_sfun_registry.obj
 0003:00008c00       $SG28065                   000000018003ec00     dsogi_pll_3ph_sfun_registry.obj
 0003:00008c08       $SG28066                   000000018003ec08     dsogi_pll_3ph_sfun_registry.obj
 0003:00008c10       $SG28419                   000000018003ec10     dsogi_pll_3ph_sfun_registry.obj
 0003:00008c88       $SG29041                   000000018003ec88     dsogi_pll_3ph_sfun_registry.obj
 0003:00008ca0       $SG28422                   000000018003eca0     dsogi_pll_3ph_sfun_registry.obj
 0003:00008d14       $SG29112                   000000018003ed14     dsogi_pll_3ph_sfun_registry.obj
 0003:00008d20       $SG28427                   000000018003ed20     dsogi_pll_3ph_sfun_registry.obj
 0003:00008d98       $SG29113                   000000018003ed98     dsogi_pll_3ph_sfun_registry.obj
 0003:00008da0       $SG28435                   000000018003eda0     dsogi_pll_3ph_sfun_registry.obj
 0003:00008e10       $SG28710                   000000018003ee10     dsogi_pll_3ph_sfun_registry.obj
 0003:00008e88       $SG29114                   000000018003ee88     dsogi_pll_3ph_sfun_registry.obj
 0003:00008e90       $SG28715                   000000018003ee90     dsogi_pll_3ph_sfun_registry.obj
 0003:00008f08       $SG29120                   000000018003ef08     dsogi_pll_3ph_sfun_registry.obj
 0003:00008f10       $SG29054                   000000018003ef10     dsogi_pll_3ph_sfun_registry.obj
 0003:00008f88       $SG29123                   000000018003ef88     dsogi_pll_3ph_sfun_registry.obj
 0003:00008f90       $SG29115                   000000018003ef90     dsogi_pll_3ph_sfun_registry.obj
 0003:00009008       $SG29126                   000000018003f008     dsogi_pll_3ph_sfun_registry.obj
 0003:00009010       $SG29117                   000000018003f010     dsogi_pll_3ph_sfun_registry.obj
 0003:00009090       $SG29127                   000000018003f090     dsogi_pll_3ph_sfun_registry.obj
 0003:00009110       $SG29128                   000000018003f110     dsogi_pll_3ph_sfun_registry.obj
 0003:00009120       $SG29130                   000000018003f120     dsogi_pll_3ph_sfun_registry.obj
 0003:0000912c       $SG29132                   000000018003f12c     dsogi_pll_3ph_sfun_registry.obj
 0003:00009134       $SG29134                   000000018003f134     dsogi_pll_3ph_sfun_registry.obj
 0003:00009140       $SG29136                   000000018003f140     dsogi_pll_3ph_sfun_registry.obj
 0003:00009150       $SG29141                   000000018003f150     dsogi_pll_3ph_sfun_registry.obj
 0003:00009238       $SG29259                   000000018003f238     dsogi_pll_3ph_sfun_registry.obj
 0003:00009268       $SG29260                   000000018003f268     dsogi_pll_3ph_sfun_registry.obj
 0003:00009278       $SG29261                   000000018003f278     dsogi_pll_3ph_sfun_registry.obj
 0003:00009280       $SG29263                   000000018003f280     dsogi_pll_3ph_sfun_registry.obj
 0003:000092b8       $SG29264                   000000018003f2b8     dsogi_pll_3ph_sfun_registry.obj
 0003:000092c8       $SG29265                   000000018003f2c8     dsogi_pll_3ph_sfun_registry.obj
 0003:000092d0       $SG29268                   000000018003f2d0     dsogi_pll_3ph_sfun_registry.obj
 0003:00009308       $SG29269                   000000018003f308     dsogi_pll_3ph_sfun_registry.obj
 0003:00009318       $SG29270                   000000018003f318     dsogi_pll_3ph_sfun_registry.obj
 0003:00009320       $SG29272                   000000018003f320     dsogi_pll_3ph_sfun_registry.obj
 0003:00009358       $SG29273                   000000018003f358     dsogi_pll_3ph_sfun_registry.obj
 0003:00009368       $SG29274                   000000018003f368     dsogi_pll_3ph_sfun_registry.obj
 0003:00009370       $SG29276                   000000018003f370     dsogi_pll_3ph_sfun_registry.obj
 0003:000093a8       $SG29277                   000000018003f3a8     dsogi_pll_3ph_sfun_registry.obj
 0003:000093b8       $SG29278                   000000018003f3b8     dsogi_pll_3ph_sfun_registry.obj
 0003:000093c0       $SG29281                   000000018003f3c0     dsogi_pll_3ph_sfun_registry.obj
 0003:000093c8       $SG29283                   000000018003f3c8     dsogi_pll_3ph_sfun_registry.obj
 0003:000093e0       $SG29284                   000000018003f3e0     dsogi_pll_3ph_sfun_registry.obj
 0003:00009418       $SG29285                   000000018003f418     dsogi_pll_3ph_sfun_registry.obj
 0003:00009428       $SG29286                   000000018003f428     dsogi_pll_3ph_sfun_registry.obj
 0003:00009430       $SG29456                   000000018003f430     dsogi_pll_3ph_sfun_registry.obj
 0003:00009450       $SG29457                   000000018003f450     dsogi_pll_3ph_sfun_registry.obj
 0003:000094e0       $SG29463                   000000018003f4e0     dsogi_pll_3ph_sfun_registry.obj
 0003:000094f8       $SG29470                   000000018003f4f8     dsogi_pll_3ph_sfun_registry.obj
 0003:00009510       $SG29464                   000000018003f510     dsogi_pll_3ph_sfun_registry.obj
 0003:000095a0       $SG29471                   000000018003f5a0     dsogi_pll_3ph_sfun_registry.obj
 0003:00009630       $SG29477                   000000018003f630     dsogi_pll_3ph_sfun_registry.obj
 0003:00009650       $SG29478                   000000018003f650     dsogi_pll_3ph_sfun_registry.obj
 0003:000096e0       $SG29484                   000000018003f6e0     dsogi_pll_3ph_sfun_registry.obj
 0003:00009700       $SG29485                   000000018003f700     dsogi_pll_3ph_sfun_registry.obj
 0003:00009790       $SG29489                   000000018003f790     dsogi_pll_3ph_sfun_registry.obj
 0003:000097b0       $SG29490                   000000018003f7b0     dsogi_pll_3ph_sfun_registry.obj
 0003:00009840       $SG29494                   000000018003f840     dsogi_pll_3ph_sfun_registry.obj
 0003:00009868       $SG29499                   000000018003f868     dsogi_pll_3ph_sfun_registry.obj
 0003:00009890       $SG29495                   000000018003f890     dsogi_pll_3ph_sfun_registry.obj
 0003:00009920       $SG29500                   000000018003f920     dsogi_pll_3ph_sfun_registry.obj
 0003:000099b0       $SG29504                   000000018003f9b0     dsogi_pll_3ph_sfun_registry.obj
 0003:000099d0       $SG29505                   000000018003f9d0     dsogi_pll_3ph_sfun_registry.obj
 0003:00009a60       $SG29509                   000000018003fa60     dsogi_pll_3ph_sfun_registry.obj
 0003:00009a80       $SG29510                   000000018003fa80     dsogi_pll_3ph_sfun_registry.obj
 0003:00009b10       $SG29514                   000000018003fb10     dsogi_pll_3ph_sfun_registry.obj
 0003:00009b28       $SG29550                   000000018003fb28     dsogi_pll_3ph_sfun_registry.obj
 0003:00009b40       $SG29515                   000000018003fb40     dsogi_pll_3ph_sfun_registry.obj
 0003:00009bd0       $SG29519                   000000018003fbd0     dsogi_pll_3ph_sfun_registry.obj
 0003:00009bf0       $SG29520                   000000018003fbf0     dsogi_pll_3ph_sfun_registry.obj
 0003:00009c80       $SG29524                   000000018003fc80     dsogi_pll_3ph_sfun_registry.obj
 0003:00009ca0       $SG29525                   000000018003fca0     dsogi_pll_3ph_sfun_registry.obj
 0003:00009d30       $SG29529                   000000018003fd30     dsogi_pll_3ph_sfun_registry.obj
 0003:00009d50       $SG29530                   000000018003fd50     dsogi_pll_3ph_sfun_registry.obj
 0003:00009de0       $SG29534                   000000018003fde0     dsogi_pll_3ph_sfun_registry.obj
 0003:00009e00       $SG29535                   000000018003fe00     dsogi_pll_3ph_sfun_registry.obj
 0003:00009e90       $SG29539                   000000018003fe90     dsogi_pll_3ph_sfun_registry.obj
 0003:00009eb0       $SG29540                   000000018003feb0     dsogi_pll_3ph_sfun_registry.obj
 0003:00009f40       $SG29544                   000000018003ff40     dsogi_pll_3ph_sfun_registry.obj
 0003:00009f60       $SG29545                   000000018003ff60     dsogi_pll_3ph_sfun_registry.obj
 0003:00009ff0       $SG29551                   000000018003fff0     dsogi_pll_3ph_sfun_registry.obj
 0003:0000a080       $SG29556                   0000000180040080     dsogi_pll_3ph_sfun_registry.obj
 0003:0000a088       $SG29561                   0000000180040088     dsogi_pll_3ph_sfun_registry.obj
 0003:0000a0a0       $SG29557                   00000001800400a0     dsogi_pll_3ph_sfun_registry.obj
 0003:0000a130       $SG29562                   0000000180040130     dsogi_pll_3ph_sfun_registry.obj
 0003:0000a1c0       $SG29566                   00000001800401c0     dsogi_pll_3ph_sfun_registry.obj
 0003:0000a1d0       $SG29567                   00000001800401d0     dsogi_pll_3ph_sfun_registry.obj
 0003:0000a260       $SG29571                   0000000180040260     dsogi_pll_3ph_sfun_registry.obj
 0003:0000a280       $SG29572                   0000000180040280     dsogi_pll_3ph_sfun_registry.obj
 0003:0000a310       $SG29576                   0000000180040310     dsogi_pll_3ph_sfun_registry.obj
 0003:0000a330       $SG29577                   0000000180040330     dsogi_pll_3ph_sfun_registry.obj
 0003:0000a3c0       $SG29581                   00000001800403c0     dsogi_pll_3ph_sfun_registry.obj
 0003:0000a3d0       $SG29582                   00000001800403d0     dsogi_pll_3ph_sfun_registry.obj
 0003:0000a460       $SG29586                   0000000180040460     dsogi_pll_3ph_sfun_registry.obj
 0003:0000a470       $SG29587                   0000000180040470     dsogi_pll_3ph_sfun_registry.obj
 0003:0000a500       $SG29591                   0000000180040500     dsogi_pll_3ph_sfun_registry.obj
 0003:0000a518       $SG29596                   0000000180040518     dsogi_pll_3ph_sfun_registry.obj
 0003:0000a530       $SG29592                   0000000180040530     dsogi_pll_3ph_sfun_registry.obj
 0003:0000a5c0       $SG29597                   00000001800405c0     dsogi_pll_3ph_sfun_registry.obj
 0003:0000a650       $SG29601                   0000000180040650     dsogi_pll_3ph_sfun_registry.obj
 0003:0000a660       $SG29602                   0000000180040660     dsogi_pll_3ph_sfun_registry.obj
 0003:0000a6f0       $SG29610                   00000001800406f0     dsogi_pll_3ph_sfun_registry.obj
 0003:0000a700       $SG29611                   0000000180040700     dsogi_pll_3ph_sfun_registry.obj
 0003:0000a790       $SG29617                   0000000180040790     dsogi_pll_3ph_sfun_registry.obj
 0003:0000a7a0       $SG29618                   00000001800407a0     dsogi_pll_3ph_sfun_registry.obj
 0003:0000a830       $SG29622                   0000000180040830     dsogi_pll_3ph_sfun_registry.obj
 0003:0000a840       $SG29623                   0000000180040840     dsogi_pll_3ph_sfun_registry.obj
 0003:0000a8d0       $SG29628                   00000001800408d0     dsogi_pll_3ph_sfun_registry.obj
 0003:0000a8e0       $SG29629                   00000001800408e0     dsogi_pll_3ph_sfun_registry.obj
 0003:0000a970       $SG29633                   0000000180040970     dsogi_pll_3ph_sfun_registry.obj
 0003:0000a9e8       $SG29676                   00000001800409e8     dsogi_pll_3ph_sfun_registry.obj
 0003:0000a9f8       $SG29757                   00000001800409f8     dsogi_pll_3ph_sfun_registry.obj
 0003:0000aa00       $SG29663                   0000000180040a00     dsogi_pll_3ph_sfun_registry.obj
 0003:0000ab18       $SG29687                   0000000180040b18     dsogi_pll_3ph_sfun_registry.obj
 0003:0000ab28       $SG29700                   0000000180040b28     dsogi_pll_3ph_sfun_registry.obj
 0003:0000ab38       $SG29711                   0000000180040b38     dsogi_pll_3ph_sfun_registry.obj
 0003:0000ab48       $SG29724                   0000000180040b48     dsogi_pll_3ph_sfun_registry.obj
 0003:0000ab58       $SG29735                   0000000180040b58     dsogi_pll_3ph_sfun_registry.obj
 0003:0000ab68       $SG29745                   0000000180040b68     dsogi_pll_3ph_sfun_registry.obj
 0003:0000ab88       $SG29756                   0000000180040b88     dsogi_pll_3ph_sfun_registry.obj
 0003:0000abb8       $SG29758                   0000000180040bb8     dsogi_pll_3ph_sfun_registry.obj
 0003:0000abc0       $SG29769                   0000000180040bc0     dsogi_pll_3ph_sfun_registry.obj
 0003:0000abf8       $SG29770                   0000000180040bf8     dsogi_pll_3ph_sfun_registry.obj
 0003:0000ac00       $SG29771                   0000000180040c00     dsogi_pll_3ph_sfun_registry.obj
 0003:0000ac50       sRtwOptimizationInfoStruct 0000000180040c50     dsogi_pll_3ph_sfun.obj
 0003:0000ac58       sOptimizationInfoFlags     0000000180040c58     dsogi_pll_3ph_sfun.obj
 0003:0000ac60       _sfTime_                   0000000180040c60     c1_dsogi_pll_3ph.obj
 0003:0000ac68       $SG27007                   0000000180040c68     c1_dsogi_pll_3ph.obj
 0003:0000ac69       $SG27024                   0000000180040c69     c1_dsogi_pll_3ph.obj
 0003:0000ac6a       $SG27307                   0000000180040c6a     c1_dsogi_pll_3ph.obj
 0003:0000ac6b       $SG27308                   0000000180040c6b     c1_dsogi_pll_3ph.obj
 0003:0000ac6c       $SG27459                   0000000180040c6c     c1_dsogi_pll_3ph.obj
 0003:0000ac70       ?newstr@?1??sf_c1_dsogi_pll_3ph_get_post_codegen_info@@9@9 0000000180040c70     c1_dsogi_pll_3ph.obj
 0003:0000b290       _sfTime_                   0000000180041290     c2_dsogi_pll_3ph.obj
 0003:0000b298       $SG27007                   0000000180041298     c2_dsogi_pll_3ph.obj
 0003:0000b299       $SG27024                   0000000180041299     c2_dsogi_pll_3ph.obj
 0003:0000b29a       $SG27307                   000000018004129a     c2_dsogi_pll_3ph.obj
 0003:0000b29b       $SG27308                   000000018004129b     c2_dsogi_pll_3ph.obj
 0003:0000b29c       $SG27459                   000000018004129c     c2_dsogi_pll_3ph.obj
 0003:0000b2a0       ?newstr@?1??sf_c2_dsogi_pll_3ph_get_post_codegen_info@@9@9 00000001800412a0     c2_dsogi_pll_3ph.obj
 0003:0000b8c0       _sfTime_                   00000001800418c0     c10_dsogi_pll_3ph.obj
 0003:0000b8c8       $SG27008                   00000001800418c8     c10_dsogi_pll_3ph.obj
 0003:0000b8c9       $SG27025                   00000001800418c9     c10_dsogi_pll_3ph.obj
 0003:0000b8ca       $SG27281                   00000001800418ca     c10_dsogi_pll_3ph.obj
 0003:0000b8cb       $SG27282                   00000001800418cb     c10_dsogi_pll_3ph.obj
 0003:0000b8cc       $SG27433                   00000001800418cc     c10_dsogi_pll_3ph.obj
 0003:0000b8d0       ?newstr@?1??sf_c10_dsogi_pll_3ph_get_post_codegen_info@@9@9 00000001800418d0     c10_dsogi_pll_3ph.obj
 0003:0000bef0       _sfTime_                   0000000180041ef0     c17_dsogi_pll_3ph.obj
 0003:0000bef8       $SG27000                   0000000180041ef8     c17_dsogi_pll_3ph.obj
 0003:0000bef9       $SG27017                   0000000180041ef9     c17_dsogi_pll_3ph.obj
 0003:0000befa       $SG27248                   0000000180041efa     c17_dsogi_pll_3ph.obj
 0003:0000befb       $SG27249                   0000000180041efb     c17_dsogi_pll_3ph.obj
 0003:0000befc       $SG27400                   0000000180041efc     c17_dsogi_pll_3ph.obj
 0003:0000bf00       ?newstr@?1??sf_c17_dsogi_pll_3ph_get_post_codegen_info@@9@9 0000000180041f00     c17_dsogi_pll_3ph.obj
 0003:0000c500       _sfTime_                   0000000180042500     c18_dsogi_pll_3ph.obj
 0003:0000c508       $SG27000                   0000000180042508     c18_dsogi_pll_3ph.obj
 0003:0000c509       $SG27017                   0000000180042509     c18_dsogi_pll_3ph.obj
 0003:0000c50a       $SG27248                   000000018004250a     c18_dsogi_pll_3ph.obj
 0003:0000c50b       $SG27249                   000000018004250b     c18_dsogi_pll_3ph.obj
 0003:0000c50c       $SG27400                   000000018004250c     c18_dsogi_pll_3ph.obj
 0003:0000c510       ?newstr@?1??sf_c18_dsogi_pll_3ph_get_post_codegen_info@@9@9 0000000180042510     c18_dsogi_pll_3ph.obj
 0003:0000cb20       _sfTime_                   0000000180042b20     c19_dsogi_pll_3ph.obj
 0003:0000cb28       $SG27000                   0000000180042b28     c19_dsogi_pll_3ph.obj
 0003:0000cb29       $SG27017                   0000000180042b29     c19_dsogi_pll_3ph.obj
 0003:0000cb2a       $SG27248                   0000000180042b2a     c19_dsogi_pll_3ph.obj
 0003:0000cb2b       $SG27249                   0000000180042b2b     c19_dsogi_pll_3ph.obj
 0003:0000cb2c       $SG27400                   0000000180042b2c     c19_dsogi_pll_3ph.obj
 0003:0000cb30       ?newstr@?1??sf_c19_dsogi_pll_3ph_get_post_codegen_info@@9@9 0000000180042b30     c19_dsogi_pll_3ph.obj
 0003:0000d130       _sfTime_                   0000000180043130     c20_dsogi_pll_3ph.obj
 0003:0000d138       $SG27000                   0000000180043138     c20_dsogi_pll_3ph.obj
 0003:0000d139       $SG27017                   0000000180043139     c20_dsogi_pll_3ph.obj
 0003:0000d13a       $SG27248                   000000018004313a     c20_dsogi_pll_3ph.obj
 0003:0000d13b       $SG27249                   000000018004313b     c20_dsogi_pll_3ph.obj
 0003:0000d13c       $SG27400                   000000018004313c     c20_dsogi_pll_3ph.obj
 0003:0000d140       ?newstr@?1??sf_c20_dsogi_pll_3ph_get_post_codegen_info@@9@9 0000000180043140     c20_dsogi_pll_3ph.obj
 0003:0000d750       _sfTime_                   0000000180043750     c21_dsogi_pll_3ph.obj
 0003:0000d758       $SG27000                   0000000180043758     c21_dsogi_pll_3ph.obj
 0003:0000d759       $SG27017                   0000000180043759     c21_dsogi_pll_3ph.obj
 0003:0000d75a       $SG27248                   000000018004375a     c21_dsogi_pll_3ph.obj
 0003:0000d75b       $SG27249                   000000018004375b     c21_dsogi_pll_3ph.obj
 0003:0000d75c       $SG27400                   000000018004375c     c21_dsogi_pll_3ph.obj
 0003:0000d760       ?newstr@?1??sf_c21_dsogi_pll_3ph_get_post_codegen_info@@9@9 0000000180043760     c21_dsogi_pll_3ph.obj
 0003:0000dd70       _sfTime_                   0000000180043d70     c22_dsogi_pll_3ph.obj
 0003:0000dd78       $SG27000                   0000000180043d78     c22_dsogi_pll_3ph.obj
 0003:0000dd79       $SG27017                   0000000180043d79     c22_dsogi_pll_3ph.obj
 0003:0000dd7a       $SG27248                   0000000180043d7a     c22_dsogi_pll_3ph.obj
 0003:0000dd7b       $SG27249                   0000000180043d7b     c22_dsogi_pll_3ph.obj
 0003:0000dd7c       $SG27400                   0000000180043d7c     c22_dsogi_pll_3ph.obj
 0003:0000dd80       ?newstr@?1??sf_c22_dsogi_pll_3ph_get_post_codegen_info@@9@9 0000000180043d80     c22_dsogi_pll_3ph.obj
 0003:0000e390       _sfTime_                   0000000180044390     c23_dsogi_pll_3ph.obj
 0003:0000e398       $SG27004                   0000000180044398     c23_dsogi_pll_3ph.obj
 0003:0000e399       $SG27027                   0000000180044399     c23_dsogi_pll_3ph.obj
 0003:0000e39a       $SG27321                   000000018004439a     c23_dsogi_pll_3ph.obj
 0003:0000e39b       $SG27322                   000000018004439b     c23_dsogi_pll_3ph.obj
 0003:0000e39c       $SG27475                   000000018004439c     c23_dsogi_pll_3ph.obj
 0003:0000e3a0       ?newstr@?1??sf_c23_dsogi_pll_3ph_get_post_codegen_info@@9@9 00000001800443a0     c23_dsogi_pll_3ph.obj
 0003:0000e9d0       _sfTime_                   00000001800449d0     c24_dsogi_pll_3ph.obj
 0003:0000e9d8       $SG27003                   00000001800449d8     c24_dsogi_pll_3ph.obj
 0003:0000e9d9       $SG27020                   00000001800449d9     c24_dsogi_pll_3ph.obj
 0003:0000e9da       $SG27271                   00000001800449da     c24_dsogi_pll_3ph.obj
 0003:0000e9db       $SG27272                   00000001800449db     c24_dsogi_pll_3ph.obj
 0003:0000e9dc       $SG27423                   00000001800449dc     c24_dsogi_pll_3ph.obj
 0003:0000e9e0       ?newstr@?1??sf_c24_dsogi_pll_3ph_get_post_codegen_info@@9@9 00000001800449e0     c24_dsogi_pll_3ph.obj
 0003:0000f000       _sfTime_                   0000000180045000     c25_dsogi_pll_3ph.obj
 0003:0000f008       $SG27001                   0000000180045008     c25_dsogi_pll_3ph.obj
 0003:0000f009       $SG27018                   0000000180045009     c25_dsogi_pll_3ph.obj
 0003:0000f00a       $SG27262                   000000018004500a     c25_dsogi_pll_3ph.obj
 0003:0000f00b       $SG27263                   000000018004500b     c25_dsogi_pll_3ph.obj
 0003:0000f00c       $SG27414                   000000018004500c     c25_dsogi_pll_3ph.obj
 0003:0000f010       ?newstr@?1??sf_c25_dsogi_pll_3ph_get_post_codegen_info@@9@9 0000000180045010     c25_dsogi_pll_3ph.obj
 0003:0000f620       _sfTime_                   0000000180045620     c26_dsogi_pll_3ph.obj
 0003:0000f628       $SG27000                   0000000180045628     c26_dsogi_pll_3ph.obj
 0003:0000f629       $SG27017                   0000000180045629     c26_dsogi_pll_3ph.obj
 0003:0000f62a       $SG27248                   000000018004562a     c26_dsogi_pll_3ph.obj
 0003:0000f62b       $SG27249                   000000018004562b     c26_dsogi_pll_3ph.obj
 0003:0000f62c       $SG27400                   000000018004562c     c26_dsogi_pll_3ph.obj
 0003:0000f630       ?newstr@?1??sf_c26_dsogi_pll_3ph_get_post_codegen_info@@9@9 0000000180045630     c26_dsogi_pll_3ph.obj
 0003:0000fc38       sfGlobalMdlStartCallCounts 0000000180045c38     dsogi_pll_3ph_sfun_registry.obj
 0003:0000fc3c       $SG29108                   0000000180045c3c     dsogi_pll_3ph_sfun_registry.obj
 0003:0000fc3e       ?warningGuard@?1??ssGetRootSS@@9@9 0000000180045c3e     dsogi_pll_3ph_sfun_registry.obj
 0003:0000fc3f       ?warningGuard@?1??ssGetParentSS@@9@9 0000000180045c3f     dsogi_pll_3ph_sfun_registry.obj
 0003:0000fc40       GS_ExceptionRecord         0000000180045c40     MSVCRT:gs_report.obj
 0003:0000fce0       GS_ContextRecord           0000000180045ce0     MSVCRT:gs_report.obj
 0003:000101b0       ?__proc_attached@@3HA      00000001800461b0     MSVCRT:dll_dllmain.obj
 0003:000101f0       ?is_initialized_as_dll@@3_NA 00000001800461f0     MSVCRT:utility.obj
 0003:000101f1       ?module_local_atexit_table_initialized@@3_NA 00000001800461f1     MSVCRT:utility.obj
 0003:000101f8       ?module_local_atexit_table@@3U_onexit_table_t@@A 00000001800461f8     MSVCRT:utility.obj
 0003:00010210       ?module_local_at_quick_exit_table@@3U_onexit_table_t@@A 0000000180046210     MSVCRT:utility.obj
